
main.elf:     file format elf32-avr

Sections:
Idx Name          Size      VMA       LMA       File off  Algn
  0 .data         000000a0  00800100  00001898  0000192c  2**0
                  CONTENTS, ALLOC, LOAD, DATA
  1 .text         00001898  00000000  00000000  00000094  2**1
                  CONTENTS, ALLOC, LOAD, READONLY, CODE
  2 .bss          0000005c  008001a0  008001a0  000019cc  2**0
                  ALLOC
  3 .stab         00004cc8  00000000  00000000  000019cc  2**2
                  CONTENTS, READONLY, DEBUGGING
  4 .stabstr      00001031  00000000  00000000  00006694  2**0
                  CONTENTS, READONLY, DEBUGGING
  5 .debug_aranges 00000080  00000000  00000000  000076c5  2**0
                  CONTENTS, READONLY, DEBUGGING
  6 .debug_pubnames 0000025e  00000000  00000000  00007745  2**0
                  CONTENTS, READONLY, DEBUGGING
  7 .debug_info   00000c09  00000000  00000000  000079a3  2**0
                  CONTENTS, READONLY, DEBUGGING
  8 .debug_abbrev 00000449  00000000  00000000  000085ac  2**0
                  CONTENTS, READONLY, DEBUGGING
  9 .debug_line   0000099a  00000000  00000000  000089f5  2**0
                  CONTENTS, READONLY, DEBUGGING
 10 .debug_frame  00000200  00000000  00000000  00009390  2**2
                  CONTENTS, READONLY, DEBUGGING
 11 .debug_str    0000033f  00000000  00000000  00009590  2**0
                  CONTENTS, READONLY, DEBUGGING
 12 .debug_loc    0000066d  00000000  00000000  000098cf  2**0
                  CONTENTS, READONLY, DEBUGGING
 13 .debug_pubtypes 00000098  00000000  00000000  00009f3c  2**0
                  CONTENTS, READONLY, DEBUGGING

Disassembly of section .text:

00000000 <__vectors>:
       0:	0c 94 bf 00 	jmp	0x17e	; 0x17e <__ctors_end>
       4:	0c 94 dc 00 	jmp	0x1b8	; 0x1b8 <__bad_interrupt>
       8:	0c 94 dc 00 	jmp	0x1b8	; 0x1b8 <__bad_interrupt>
       c:	0c 94 dc 00 	jmp	0x1b8	; 0x1b8 <__bad_interrupt>
      10:	0c 94 dc 00 	jmp	0x1b8	; 0x1b8 <__bad_interrupt>
      14:	0c 94 dc 00 	jmp	0x1b8	; 0x1b8 <__bad_interrupt>
      18:	0c 94 dc 00 	jmp	0x1b8	; 0x1b8 <__bad_interrupt>
      1c:	0c 94 dc 00 	jmp	0x1b8	; 0x1b8 <__bad_interrupt>
      20:	0c 94 dc 00 	jmp	0x1b8	; 0x1b8 <__bad_interrupt>
      24:	0c 94 dc 00 	jmp	0x1b8	; 0x1b8 <__bad_interrupt>
      28:	0c 94 dc 00 	jmp	0x1b8	; 0x1b8 <__bad_interrupt>
      2c:	0c 94 dc 00 	jmp	0x1b8	; 0x1b8 <__bad_interrupt>
      30:	0c 94 dc 00 	jmp	0x1b8	; 0x1b8 <__bad_interrupt>
      34:	0c 94 dc 00 	jmp	0x1b8	; 0x1b8 <__bad_interrupt>
      38:	0c 94 dc 00 	jmp	0x1b8	; 0x1b8 <__bad_interrupt>
      3c:	0c 94 dc 00 	jmp	0x1b8	; 0x1b8 <__bad_interrupt>
      40:	0c 94 dc 00 	jmp	0x1b8	; 0x1b8 <__bad_interrupt>
      44:	0c 94 dc 00 	jmp	0x1b8	; 0x1b8 <__bad_interrupt>
      48:	0c 94 dc 00 	jmp	0x1b8	; 0x1b8 <__bad_interrupt>
      4c:	0c 94 dc 00 	jmp	0x1b8	; 0x1b8 <__bad_interrupt>
      50:	0c 94 a7 02 	jmp	0x54e	; 0x54e <__vector_20>
      54:	0c 94 c6 02 	jmp	0x58c	; 0x58c <__vector_21>
      58:	0c 94 dc 00 	jmp	0x1b8	; 0x1b8 <__bad_interrupt>
      5c:	0c 94 dc 00 	jmp	0x1b8	; 0x1b8 <__bad_interrupt>
      60:	0c 94 dc 00 	jmp	0x1b8	; 0x1b8 <__bad_interrupt>
      64:	0c 94 dc 00 	jmp	0x1b8	; 0x1b8 <__bad_interrupt>
      68:	0c 94 dc 00 	jmp	0x1b8	; 0x1b8 <__bad_interrupt>
      6c:	0c 94 dc 00 	jmp	0x1b8	; 0x1b8 <__bad_interrupt>
      70:	0c 94 dc 00 	jmp	0x1b8	; 0x1b8 <__bad_interrupt>
      74:	0c 94 dc 00 	jmp	0x1b8	; 0x1b8 <__bad_interrupt>
      78:	0c 94 dc 00 	jmp	0x1b8	; 0x1b8 <__bad_interrupt>

0000007c <__c.1880>:
      7c:	6e 61 6e 00                                         nan.

00000080 <__c.1878>:
      80:	69 6e 66 00 00 40 7a 10 f3 5a 00 a0 72 4e 18 09     inf..@z..Z..rN..
      90:	00 10 a5 d4 e8 00 00 e8 76 48 17 00 00 e4 0b 54     ........vH.....T
      a0:	02 00 00 ca 9a 3b 00 00 00 e1 f5 05 00 00 80 96     .....;..........
      b0:	98 00 00 00 40 42 0f 00 00 00 a0 86 01 00 00 00     ....@B..........
      c0:	10 27 00 00 00 00 e8 03 00 00 00 00 64 00 00 00     .'..........d...
      d0:	00 00 0a 00 00 00 00 00 01 00 00 00 00 00 2c 76     ..............,v
      e0:	d8 88 dc 67 4f 08 23 df c1 df ae 59 e1 b1 b7 96     ...gO.#....Y....
      f0:	e5 e3 e4 53 c6 3a e6 51 99 76 96 e8 e6 c2 84 26     ...S.:.Q.v.....&
     100:	eb 89 8c 9b 62 ed 40 7c 6f fc ef bc 9c 9f 40 f2     ....b.@|o.....@.
     110:	ba a5 6f a5 f4 90 05 5a 2a f7 5c 93 6b 6c f9 67     ..o....Z*.\.kl.g
     120:	6d c1 1b fc e0 e4 0d 47 fe f5 20 e6 b5 00 d0 ed     m......G.. .....
     130:	90 2e 03 00 94 35 77 05 00 80 84 1e 08 00 00 20     .....5w........ 
     140:	4e 0a 00 00 00 c8 0c 33 33 33 33 0f 98 6e 12 83     N......3333..n..
     150:	11 41 ef 8d 21 14 89 3b e6 55 16 cf fe e6 db 18     .A..!..;.U......
     160:	d1 84 4b 38 1b f7 7c 1d 90 1d a4 bb e4 24 20 32     ..K8..|......$ 2
     170:	84 72 5e 22 81 00 c9 f1 24 ec a1 e5 3d 27           .r^"....$...='

0000017e <__ctors_end>:
     17e:	11 24       	eor	r1, r1
     180:	1f be       	out	0x3f, r1	; 63
     182:	cf ef       	ldi	r28, 0xFF	; 255
     184:	d0 e1       	ldi	r29, 0x10	; 16
     186:	de bf       	out	0x3e, r29	; 62
     188:	cd bf       	out	0x3d, r28	; 61

0000018a <__do_copy_data>:
     18a:	11 e0       	ldi	r17, 0x01	; 1
     18c:	a0 e0       	ldi	r26, 0x00	; 0
     18e:	b1 e0       	ldi	r27, 0x01	; 1
     190:	e8 e9       	ldi	r30, 0x98	; 152
     192:	f8 e1       	ldi	r31, 0x18	; 24
     194:	02 c0       	rjmp	.+4      	; 0x19a <__do_copy_data+0x10>
     196:	05 90       	lpm	r0, Z+
     198:	0d 92       	st	X+, r0
     19a:	a0 3a       	cpi	r26, 0xA0	; 160
     19c:	b1 07       	cpc	r27, r17
     19e:	d9 f7       	brne	.-10     	; 0x196 <__do_copy_data+0xc>

000001a0 <__do_clear_bss>:
     1a0:	11 e0       	ldi	r17, 0x01	; 1
     1a2:	a0 ea       	ldi	r26, 0xA0	; 160
     1a4:	b1 e0       	ldi	r27, 0x01	; 1
     1a6:	01 c0       	rjmp	.+2      	; 0x1aa <.do_clear_bss_start>

000001a8 <.do_clear_bss_loop>:
     1a8:	1d 92       	st	X+, r1

000001aa <.do_clear_bss_start>:
     1aa:	ac 3f       	cpi	r26, 0xFC	; 252
     1ac:	b1 07       	cpc	r27, r17
     1ae:	e1 f7       	brne	.-8      	; 0x1a8 <.do_clear_bss_loop>
     1b0:	0e 94 12 02 	call	0x424	; 0x424 <main>
     1b4:	0c 94 4a 0c 	jmp	0x1894	; 0x1894 <_exit>

000001b8 <__bad_interrupt>:
     1b8:	0c 94 00 00 	jmp	0	; 0x0 <__vectors>

000001bc <uart_put_hex_helper>:
char uart_put_hex_helper(const char c) {
     1bc:	8f 30       	cpi	r24, 0x0F	; 15
     1be:	30 f4       	brcc	.+12     	; 0x1cc <uart_put_hex_helper+0x10>
     1c0:	e8 2f       	mov	r30, r24
     1c2:	f0 e0       	ldi	r31, 0x00	; 0
     1c4:	e7 58       	subi	r30, 0x87	; 135
     1c6:	fe 4f       	sbci	r31, 0xFE	; 254
     1c8:	80 81       	ld	r24, Z
     1ca:	08 95       	ret
     1cc:	86 e6       	ldi	r24, 0x66	; 102
		case 12: return 'c';
		case 13: return 'd';
		case 14: return 'e';
	}
	return 'f';
}
     1ce:	08 95       	ret

000001d0 <uart_put_hexc>:

void uart_put_hexc(const char c) {
     1d0:	cf 93       	push	r28
     1d2:	c8 2f       	mov	r28, r24
	usart0_putc(uart_put_hex_helper((c & 0xf0) >> 4));
     1d4:	a8 2f       	mov	r26, r24
     1d6:	a2 95       	swap	r26
     1d8:	af 70       	andi	r26, 0x0F	; 15
     1da:	af 30       	cpi	r26, 0x0F	; 15
     1dc:	28 f4       	brcc	.+10     	; 0x1e8 <uart_put_hexc+0x18>
     1de:	b0 e0       	ldi	r27, 0x00	; 0
     1e0:	a7 58       	subi	r26, 0x87	; 135
     1e2:	be 4f       	sbci	r27, 0xFE	; 254
     1e4:	8c 91       	ld	r24, X
     1e6:	01 c0       	rjmp	.+2      	; 0x1ea <uart_put_hexc+0x1a>
     1e8:	86 e6       	ldi	r24, 0x66	; 102
     1ea:	0e 94 0a 03 	call	0x614	; 0x614 <usart0_putc>
	usart0_putc(uart_put_hex_helper(c & 0x0f));
     1ee:	cf 70       	andi	r28, 0x0F	; 15
     1f0:	cf 30       	cpi	r28, 0x0F	; 15
     1f2:	31 f0       	breq	.+12     	; 0x200 <uart_put_hexc+0x30>
     1f4:	ec 2f       	mov	r30, r28
     1f6:	f0 e0       	ldi	r31, 0x00	; 0
     1f8:	e7 58       	subi	r30, 0x87	; 135
     1fa:	fe 4f       	sbci	r31, 0xFE	; 254
     1fc:	80 81       	ld	r24, Z
     1fe:	01 c0       	rjmp	.+2      	; 0x202 <uart_put_hexc+0x32>
     200:	86 e6       	ldi	r24, 0x66	; 102
     202:	0e 94 0a 03 	call	0x614	; 0x614 <usart0_putc>
}
     206:	cf 91       	pop	r28
     208:	08 95       	ret

0000020a <uart_put_hex>:

void uart_put_hex(const char buf[], const int length) {
     20a:	ef 92       	push	r14
     20c:	ff 92       	push	r15
     20e:	0f 93       	push	r16
     210:	1f 93       	push	r17
     212:	cf 93       	push	r28
     214:	df 93       	push	r29
     216:	7b 01       	movw	r14, r22
	for (int i = 0; i < length; i++) {
     218:	08 2f       	mov	r16, r24
     21a:	19 2f       	mov	r17, r25
     21c:	c0 e0       	ldi	r28, 0x00	; 0
     21e:	d0 e0       	ldi	r29, 0x00	; 0
     220:	06 c0       	rjmp	.+12     	; 0x22e <uart_put_hex+0x24>
		uart_put_hexc(buf[i]);
     222:	f8 01       	movw	r30, r16
     224:	81 91       	ld	r24, Z+
     226:	8f 01       	movw	r16, r30
     228:	0e 94 e8 00 	call	0x1d0	; 0x1d0 <uart_put_hexc>
	usart0_putc(uart_put_hex_helper((c & 0xf0) >> 4));
	usart0_putc(uart_put_hex_helper(c & 0x0f));
}

void uart_put_hex(const char buf[], const int length) {
	for (int i = 0; i < length; i++) {
     22c:	21 96       	adiw	r28, 0x01	; 1
     22e:	ce 15       	cp	r28, r14
     230:	df 05       	cpc	r29, r15
     232:	bc f3       	brlt	.-18     	; 0x222 <uart_put_hex+0x18>
		uart_put_hexc(buf[i]);
	}
}
     234:	df 91       	pop	r29
     236:	cf 91       	pop	r28
     238:	1f 91       	pop	r17
     23a:	0f 91       	pop	r16
     23c:	ff 90       	pop	r15
     23e:	ef 90       	pop	r14
     240:	08 95       	ret

00000242 <usart0_puts>:
int8_t  volatile recv_counter = 0;
char    volatile recv_buffer[MESSAGE_SIZE+1];


void usart0_puts (const char *s)
{
     242:	cf 93       	push	r28
     244:	df 93       	push	r29
     246:	c8 2f       	mov	r28, r24
     248:	d9 2f       	mov	r29, r25
    while (*s)
     24a:	02 c0       	rjmp	.+4      	; 0x250 <usart0_puts+0xe>
    {
        usart0_putc(*s);
     24c:	0e 94 0a 03 	call	0x614	; 0x614 <usart0_putc>
char    volatile recv_buffer[MESSAGE_SIZE+1];


void usart0_puts (const char *s)
{
    while (*s)
     250:	89 91       	ld	r24, Y+
     252:	88 23       	and	r24, r24
     254:	d9 f7       	brne	.-10     	; 0x24c <usart0_puts+0xa>
    {
        usart0_putc(*s);
        s++;
    }
}
     256:	df 91       	pop	r29
     258:	cf 91       	pop	r28
     25a:	08 95       	ret

0000025c <step_laser_left>:
void step_laser_left() {
	// Set direction pin
	PORTD |= (1<<5);
     25c:	5d 9a       	sbi	0x0b, 5	; 11
	#else
		//round up by default
		__ticks_dc = (uint32_t)(ceil(fabs(__tmp)));
	#endif

	__builtin_avr_delay_cycles(__ticks_dc);
     25e:	80 e1       	ldi	r24, 0x10	; 16
     260:	8a 95       	dec	r24
     262:	f1 f7       	brne	.-4      	; 0x260 <step_laser_left+0x4>
	_delay_us(3);
	PORTD |= (1<<6);
     264:	5e 9a       	sbi	0x0b, 6	; 11
     266:	80 e1       	ldi	r24, 0x10	; 16
     268:	8a 95       	dec	r24
     26a:	f1 f7       	brne	.-4      	; 0x268 <step_laser_left+0xc>
	_delay_us(3);
	PORTD &= ~(1<<6);
     26c:	5e 98       	cbi	0x0b, 6	; 11
	laser_pos--;
     26e:	80 91 a0 01 	lds	r24, 0x01A0
     272:	90 91 a1 01 	lds	r25, 0x01A1
     276:	a0 91 a2 01 	lds	r26, 0x01A2
     27a:	b0 91 a3 01 	lds	r27, 0x01A3
     27e:	01 97       	sbiw	r24, 0x01	; 1
     280:	a1 09       	sbc	r26, r1
     282:	b1 09       	sbc	r27, r1
     284:	80 93 a0 01 	sts	0x01A0, r24
     288:	90 93 a1 01 	sts	0x01A1, r25
     28c:	a0 93 a2 01 	sts	0x01A2, r26
     290:	b0 93 a3 01 	sts	0x01A3, r27
}
     294:	08 95       	ret

00000296 <step_laser_right>:

void step_laser_right() {
	// Set direction pin
	PORTD &= ~(1<<5);
     296:	5d 98       	cbi	0x0b, 5	; 11
     298:	80 e1       	ldi	r24, 0x10	; 16
     29a:	8a 95       	dec	r24
     29c:	f1 f7       	brne	.-4      	; 0x29a <step_laser_right+0x4>
	_delay_us(3);
	PORTD |= (1<<6);
     29e:	5e 9a       	sbi	0x0b, 6	; 11
     2a0:	80 e1       	ldi	r24, 0x10	; 16
     2a2:	8a 95       	dec	r24
     2a4:	f1 f7       	brne	.-4      	; 0x2a2 <step_laser_right+0xc>
	_delay_us(3);
	PORTD &= ~(1<<6);
     2a6:	5e 98       	cbi	0x0b, 6	; 11
	laser_pos++;
     2a8:	80 91 a0 01 	lds	r24, 0x01A0
     2ac:	90 91 a1 01 	lds	r25, 0x01A1
     2b0:	a0 91 a2 01 	lds	r26, 0x01A2
     2b4:	b0 91 a3 01 	lds	r27, 0x01A3
     2b8:	01 96       	adiw	r24, 0x01	; 1
     2ba:	a1 1d       	adc	r26, r1
     2bc:	b1 1d       	adc	r27, r1
     2be:	80 93 a0 01 	sts	0x01A0, r24
     2c2:	90 93 a1 01 	sts	0x01A1, r25
     2c6:	a0 93 a2 01 	sts	0x01A2, r26
     2ca:	b0 93 a3 01 	sts	0x01A3, r27
}
     2ce:	08 95       	ret

000002d0 <step_turntable_right>:


void step_turntable_right() {
	// Set direction pin
	PORTD &= ~(1<<3);
     2d0:	5b 98       	cbi	0x0b, 3	; 11
     2d2:	80 e1       	ldi	r24, 0x10	; 16
     2d4:	8a 95       	dec	r24
     2d6:	f1 f7       	brne	.-4      	; 0x2d4 <step_turntable_right+0x4>
	_delay_us(3);
	PORTD |= (1<<4);
     2d8:	5c 9a       	sbi	0x0b, 4	; 11
     2da:	80 e1       	ldi	r24, 0x10	; 16
     2dc:	8a 95       	dec	r24
     2de:	f1 f7       	brne	.-4      	; 0x2dc <step_turntable_right+0xc>
	_delay_us(3);
	PORTD &= ~(1<<4);
     2e0:	5c 98       	cbi	0x0b, 4	; 11
	turn_pos++;
     2e2:	80 91 a4 01 	lds	r24, 0x01A4
     2e6:	90 91 a5 01 	lds	r25, 0x01A5
     2ea:	a0 91 a6 01 	lds	r26, 0x01A6
     2ee:	b0 91 a7 01 	lds	r27, 0x01A7
     2f2:	01 96       	adiw	r24, 0x01	; 1
     2f4:	a1 1d       	adc	r26, r1
     2f6:	b1 1d       	adc	r27, r1
     2f8:	80 93 a4 01 	sts	0x01A4, r24
     2fc:	90 93 a5 01 	sts	0x01A5, r25
     300:	a0 93 a6 01 	sts	0x01A6, r26
     304:	b0 93 a7 01 	sts	0x01A7, r27
}
     308:	08 95       	ret

0000030a <step_turntable_left>:

void step_turntable_left() {
	// Set direction pin
	PORTD |= (1<<3);
     30a:	5b 9a       	sbi	0x0b, 3	; 11
     30c:	80 e1       	ldi	r24, 0x10	; 16
     30e:	8a 95       	dec	r24
     310:	f1 f7       	brne	.-4      	; 0x30e <step_turntable_left+0x4>
	_delay_us(3);
	PORTD |= (1<<4);
     312:	5c 9a       	sbi	0x0b, 4	; 11
     314:	80 e1       	ldi	r24, 0x10	; 16
     316:	8a 95       	dec	r24
     318:	f1 f7       	brne	.-4      	; 0x316 <step_turntable_left+0xc>
	_delay_us(3);
	PORTD &= ~(1<<4);
     31a:	5c 98       	cbi	0x0b, 4	; 11
	turn_pos--;
     31c:	80 91 a4 01 	lds	r24, 0x01A4
     320:	90 91 a5 01 	lds	r25, 0x01A5
     324:	a0 91 a6 01 	lds	r26, 0x01A6
     328:	b0 91 a7 01 	lds	r27, 0x01A7
     32c:	01 97       	sbiw	r24, 0x01	; 1
     32e:	a1 09       	sbc	r26, r1
     330:	b1 09       	sbc	r27, r1
     332:	80 93 a4 01 	sts	0x01A4, r24
     336:	90 93 a5 01 	sts	0x01A5, r25
     33a:	a0 93 a6 01 	sts	0x01A6, r26
     33e:	b0 93 a7 01 	sts	0x01A7, r27
}
     342:	08 95       	ret

00000344 <setup_inputs>:

void setup_inputs() {
	// Configure PA0 as output enable laser.
	DDRA  |= (1 << 0);
     344:	08 9a       	sbi	0x01, 0	; 1
	PORTA |= (1 << 0);
     346:	10 9a       	sbi	0x02, 0	; 2

	// Configure endstop pin for laser.
	DDRA  |= (1 << 1);
     348:	09 9a       	sbi	0x01, 1	; 1
	PORTA |= (1 << 1);
     34a:	11 9a       	sbi	0x02, 1	; 2
}
     34c:	08 95       	ret

0000034e <home_laser>:

void home_laser() {
	while (PINA & (1<<0)) {
     34e:	08 c0       	rjmp	.+16     	; 0x360 <home_laser+0x12>
		step_laser_left();
     350:	0e 94 2e 01 	call	0x25c	; 0x25c <step_laser_left>
	#else
		//round up by default
		__ticks_dc = (uint32_t)(ceil(fabs(__tmp)));
	#endif

	__builtin_avr_delay_cycles(__ticks_dc);
     354:	8f e9       	ldi	r24, 0x9F	; 159
     356:	9f e0       	ldi	r25, 0x0F	; 15
     358:	01 97       	sbiw	r24, 0x01	; 1
     35a:	f1 f7       	brne	.-4      	; 0x358 <home_laser+0xa>
     35c:	00 c0       	rjmp	.+0      	; 0x35e <home_laser+0x10>
     35e:	00 00       	nop
	DDRA  |= (1 << 1);
	PORTA |= (1 << 1);
}

void home_laser() {
	while (PINA & (1<<0)) {
     360:	00 99       	sbic	0x00, 0	; 0
     362:	f6 cf       	rjmp	.-20     	; 0x350 <home_laser+0x2>
		step_laser_left();
		_delay_ms(1);
	}
	laser_pos = 0;
     364:	10 92 a0 01 	sts	0x01A0, r1
     368:	10 92 a1 01 	sts	0x01A1, r1
     36c:	10 92 a2 01 	sts	0x01A2, r1
     370:	10 92 a3 01 	sts	0x01A3, r1
}
     374:	08 95       	ret

00000376 <process_home>:


void process_home() {
	usart0_puts("Processing message home\r\n");
     376:	80 e0       	ldi	r24, 0x00	; 0
     378:	91 e0       	ldi	r25, 0x01	; 1
     37a:	0e 94 21 01 	call	0x242	; 0x242 <usart0_puts>
	usart0_puts("recv_buffer: ");
     37e:	8a e1       	ldi	r24, 0x1A	; 26
     380:	91 e0       	ldi	r25, 0x01	; 1
     382:	0e 94 21 01 	call	0x242	; 0x242 <usart0_puts>
	usart0_puts(recv_buffer);
     386:	85 ef       	ldi	r24, 0xF5	; 245
     388:	91 e0       	ldi	r25, 0x01	; 1
     38a:	0e 94 21 01 	call	0x242	; 0x242 <usart0_puts>
	usart0_puts("\r\n");
     38e:	88 e2       	ldi	r24, 0x28	; 40
     390:	91 e0       	ldi	r25, 0x01	; 1
     392:	0e 94 21 01 	call	0x242	; 0x242 <usart0_puts>
     396:	80 e0       	ldi	r24, 0x00	; 0
     398:	90 e0       	ldi	r25, 0x00	; 0
	for (uint8_t i = 0; i < MESSAGE_SIZE; i++) {
		if (recv_buffer[i] != 'H') {
     39a:	fc 01       	movw	r30, r24
     39c:	eb 50       	subi	r30, 0x0B	; 11
     39e:	fe 4f       	sbci	r31, 0xFE	; 254
     3a0:	20 81       	ld	r18, Z
     3a2:	28 34       	cpi	r18, 0x48	; 72
     3a4:	71 f4       	brne	.+28     	; 0x3c2 <process_home+0x4c>
     3a6:	01 96       	adiw	r24, 0x01	; 1
void process_home() {
	usart0_puts("Processing message home\r\n");
	usart0_puts("recv_buffer: ");
	usart0_puts(recv_buffer);
	usart0_puts("\r\n");
	for (uint8_t i = 0; i < MESSAGE_SIZE; i++) {
     3a8:	86 30       	cpi	r24, 0x06	; 6
     3aa:	91 05       	cpc	r25, r1
     3ac:	b1 f7       	brne	.-20     	; 0x39a <process_home+0x24>
		if (recv_buffer[i] != 'H') {
			return;
		}
	}
	usart0_puts("Homing laser\r\n");
     3ae:	8b e2       	ldi	r24, 0x2B	; 43
     3b0:	91 e0       	ldi	r25, 0x01	; 1
     3b2:	0e 94 21 01 	call	0x242	; 0x242 <usart0_puts>
	home_laser();
     3b6:	0e 94 a7 01 	call	0x34e	; 0x34e <home_laser>
	usart0_puts("Laser homed\r\n");
     3ba:	8a e3       	ldi	r24, 0x3A	; 58
     3bc:	91 e0       	ldi	r25, 0x01	; 1
     3be:	0e 94 21 01 	call	0x242	; 0x242 <usart0_puts>
     3c2:	08 95       	ret

000003c4 <process_laser>:
}

void process_laser() {
	laser_dest = ((int32_t) recv_buffer[4]) | ((int32_t) recv_buffer[3]) << 8;
     3c4:	20 91 f9 01 	lds	r18, 0x01F9
     3c8:	80 91 f8 01 	lds	r24, 0x01F8
     3cc:	90 e0       	ldi	r25, 0x00	; 0
     3ce:	a0 e0       	ldi	r26, 0x00	; 0
     3d0:	b0 e0       	ldi	r27, 0x00	; 0
     3d2:	ba 2f       	mov	r27, r26
     3d4:	a9 2f       	mov	r26, r25
     3d6:	98 2f       	mov	r25, r24
     3d8:	88 27       	eor	r24, r24
     3da:	30 e0       	ldi	r19, 0x00	; 0
     3dc:	40 e0       	ldi	r20, 0x00	; 0
     3de:	50 e0       	ldi	r21, 0x00	; 0
     3e0:	82 2b       	or	r24, r18
     3e2:	93 2b       	or	r25, r19
     3e4:	a4 2b       	or	r26, r20
     3e6:	b5 2b       	or	r27, r21
     3e8:	80 93 a8 01 	sts	0x01A8, r24
     3ec:	90 93 a9 01 	sts	0x01A9, r25
     3f0:	a0 93 aa 01 	sts	0x01AA, r26
     3f4:	b0 93 ab 01 	sts	0x01AB, r27
	usart0_puts("New laser destination set\r\n");
     3f8:	88 e4       	ldi	r24, 0x48	; 72
     3fa:	91 e0       	ldi	r25, 0x01	; 1
     3fc:	0e 94 21 01 	call	0x242	; 0x242 <usart0_puts>
}
     400:	08 95       	ret

00000402 <process_message>:

void process_message() {
	usart0_puts("Processing message\r\n");
     402:	84 e6       	ldi	r24, 0x64	; 100
     404:	91 e0       	ldi	r25, 0x01	; 1
     406:	0e 94 21 01 	call	0x242	; 0x242 <usart0_puts>
	switch(recv_buffer[0]) {
     40a:	80 91 f5 01 	lds	r24, 0x01F5
     40e:	88 34       	cpi	r24, 0x48	; 72
     410:	19 f0       	breq	.+6      	; 0x418 <process_message+0x16>
     412:	8c 34       	cpi	r24, 0x4C	; 76
     414:	31 f4       	brne	.+12     	; 0x422 <process_message+0x20>
     416:	03 c0       	rjmp	.+6      	; 0x41e <process_message+0x1c>
		case 'H': process_home(); break;
     418:	0e 94 bb 01 	call	0x376	; 0x376 <process_home>
     41c:	08 95       	ret
		case 'L': process_laser(); break;
     41e:	0e 94 e2 01 	call	0x3c4	; 0x3c4 <process_laser>
     422:	08 95       	ret

00000424 <main>:
	}
}

int main(void) {
     424:	cf 93       	push	r28
     426:	df 93       	push	r29

	recv_buffer[MESSAGE_SIZE] = 0;
     428:	10 92 fb 01 	sts	0x01FB, r1
	
	wdt_disable();
     42c:	88 e1       	ldi	r24, 0x18	; 24
     42e:	0f b6       	in	r0, 0x3f	; 63
     430:	f8 94       	cli
     432:	80 93 60 00 	sts	0x0060, r24
     436:	10 92 60 00 	sts	0x0060, r1
     43a:	0f be       	out	0x3f, r0	; 63
    usart0_init();
     43c:	0e 94 93 02 	call	0x526	; 0x526 <usart0_init>
		
	sei();
     440:	78 94       	sei


	DDRD |= (1<<3);
     442:	53 9a       	sbi	0x0a, 3	; 10
	DDRD |= (1<<4);
     444:	54 9a       	sbi	0x0a, 4	; 10
	DDRD |= (1<<5);
     446:	55 9a       	sbi	0x0a, 5	; 10
	DDRD |= (1<<6);
     448:	56 9a       	sbi	0x0a, 6	; 10

	setup_inputs();
     44a:	0e 94 a2 01 	call	0x344	; 0x344 <setup_inputs>
			case '2': step_right(); step_up(); break;
			case '3': step_left(); step_down(); break;
			case '4': step_right(); step_down(); break;
		}
*/
		if (laser_pos < laser_dest) {
     44e:	20 91 a0 01 	lds	r18, 0x01A0
     452:	30 91 a1 01 	lds	r19, 0x01A1
     456:	40 91 a2 01 	lds	r20, 0x01A2
     45a:	50 91 a3 01 	lds	r21, 0x01A3
     45e:	80 91 a8 01 	lds	r24, 0x01A8
     462:	90 91 a9 01 	lds	r25, 0x01A9
     466:	a0 91 aa 01 	lds	r26, 0x01AA
     46a:	b0 91 ab 01 	lds	r27, 0x01AB
     46e:	28 17       	cp	r18, r24
     470:	39 07       	cpc	r19, r25
     472:	4a 07       	cpc	r20, r26
     474:	5b 07       	cpc	r21, r27
     476:	2c f4       	brge	.+10     	; 0x482 <main+0x5e>
			step_laser_right();
     478:	0e 94 4b 01 	call	0x296	; 0x296 <step_laser_right>
			usart0_putc('r');
     47c:	82 e7       	ldi	r24, 0x72	; 114
     47e:	0e 94 0a 03 	call	0x614	; 0x614 <usart0_putc>
		}
		if (laser_pos > laser_dest) {
     482:	20 91 a0 01 	lds	r18, 0x01A0
     486:	30 91 a1 01 	lds	r19, 0x01A1
     48a:	40 91 a2 01 	lds	r20, 0x01A2
     48e:	50 91 a3 01 	lds	r21, 0x01A3
     492:	80 91 a8 01 	lds	r24, 0x01A8
     496:	90 91 a9 01 	lds	r25, 0x01A9
     49a:	a0 91 aa 01 	lds	r26, 0x01AA
     49e:	b0 91 ab 01 	lds	r27, 0x01AB
     4a2:	82 17       	cp	r24, r18
     4a4:	93 07       	cpc	r25, r19
     4a6:	a4 07       	cpc	r26, r20
     4a8:	b5 07       	cpc	r27, r21
     4aa:	2c f4       	brge	.+10     	; 0x4b6 <main+0x92>
			step_laser_left();
     4ac:	0e 94 2e 01 	call	0x25c	; 0x25c <step_laser_left>
			usart0_putc('l');
     4b0:	8c e6       	ldi	r24, 0x6C	; 108
     4b2:	0e 94 0a 03 	call	0x614	; 0x614 <usart0_putc>
		}

		if (usart0_hasc()) {
     4b6:	0e 94 01 03 	call	0x602	; 0x602 <usart0_hasc>
     4ba:	88 23       	and	r24, r24
     4bc:	69 f1       	breq	.+90     	; 0x518 <main+0xf4>
			recv_buffer[recv_counter] = usart0_getc();
     4be:	c0 91 b0 01 	lds	r28, 0x01B0
     4c2:	dd 27       	eor	r29, r29
     4c4:	c7 fd       	sbrc	r28, 7
     4c6:	d0 95       	com	r29
     4c8:	0e 94 f0 02 	call	0x5e0	; 0x5e0 <usart0_getc>
     4cc:	cb 50       	subi	r28, 0x0B	; 11
     4ce:	de 4f       	sbci	r29, 0xFE	; 254
     4d0:	88 83       	st	Y, r24
			usart0_putc(recv_buffer[recv_counter]);
     4d2:	e0 91 b0 01 	lds	r30, 0x01B0
     4d6:	ff 27       	eor	r31, r31
     4d8:	e7 fd       	sbrc	r30, 7
     4da:	f0 95       	com	r31
     4dc:	eb 50       	subi	r30, 0x0B	; 11
     4de:	fe 4f       	sbci	r31, 0xFE	; 254
     4e0:	80 81       	ld	r24, Z
     4e2:	0e 94 0a 03 	call	0x614	; 0x614 <usart0_putc>
			usart0_putc(' ');
     4e6:	80 e2       	ldi	r24, 0x20	; 32
     4e8:	0e 94 0a 03 	call	0x614	; 0x614 <usart0_putc>
			usart0_putc(recv_counter + 65);
     4ec:	80 91 b0 01 	lds	r24, 0x01B0
     4f0:	8f 5b       	subi	r24, 0xBF	; 191
     4f2:	0e 94 0a 03 	call	0x614	; 0x614 <usart0_putc>
			usart0_puts("\r\n");
     4f6:	88 e2       	ldi	r24, 0x28	; 40
     4f8:	91 e0       	ldi	r25, 0x01	; 1
     4fa:	0e 94 21 01 	call	0x242	; 0x242 <usart0_puts>
			recv_counter++;
     4fe:	80 91 b0 01 	lds	r24, 0x01B0
     502:	8f 5f       	subi	r24, 0xFF	; 255
     504:	80 93 b0 01 	sts	0x01B0, r24
			if (recv_counter == MESSAGE_SIZE) {
     508:	80 91 b0 01 	lds	r24, 0x01B0
     50c:	86 30       	cpi	r24, 0x06	; 6
     50e:	21 f4       	brne	.+8      	; 0x518 <main+0xf4>
				process_message();
     510:	0e 94 01 02 	call	0x402	; 0x402 <process_message>
				recv_counter = 0;
     514:	10 92 b0 01 	sts	0x01B0, r1
     518:	8f e9       	ldi	r24, 0x9F	; 159
     51a:	9f e0       	ldi	r25, 0x0F	; 15
     51c:	01 97       	sbiw	r24, 0x01	; 1
     51e:	f1 f7       	brne	.-4      	; 0x51c <main+0xf8>
     520:	00 c0       	rjmp	.+0      	; 0x522 <main+0xfe>
     522:	00 00       	nop
     524:	94 cf       	rjmp	.-216    	; 0x44e <main+0x2a>

00000526 <usart0_init>:
static volatile char USART0_TxTail;

/* Initialize USART */
void usart0_init( void )
{
    UBRR0L = UBRRL_VALUE;
     526:	89 e1       	ldi	r24, 0x19	; 25
     528:	80 93 c4 00 	sts	0x00C4, r24
    UBRR0H = UBRRH_VALUE;
     52c:	10 92 c5 00 	sts	0x00C5, r1
    UCSR0B = ( ( 1 << RXCIE0 ) | ( 1 << RXEN0 ) | ( 1 << TXEN0 ) );
     530:	88 e9       	ldi	r24, 0x98	; 152
     532:	80 93 c1 00 	sts	0x00C1, r24
    #ifdef URSEL
        UCSRC = (1<<URSEL)|(1<<UCSZ1)|(1<<UCSZ0);
    #else
        UCSR0C = (1<<UCSZ01)|(1<<UCSZ00);
     536:	86 e0       	ldi	r24, 0x06	; 6
     538:	80 93 c2 00 	sts	0x00C2, r24
    #endif
#if USE_2X
    UCSR0A |= (1 << U2X0);
#endif /*USE_2X*/
    USART0_RxTail = 0;
     53c:	10 92 b2 01 	sts	0x01B2, r1
    USART0_RxHead = 0;
     540:	10 92 b1 01 	sts	0x01B1, r1
    USART0_TxTail = 0;
     544:	10 92 b4 01 	sts	0x01B4, r1
    USART0_TxHead = 0;
     548:	10 92 b3 01 	sts	0x01B3, r1
}
     54c:	08 95       	ret

0000054e <__vector_20>:


ISR(UART0_RECV_IRQ)
{
     54e:	1f 92       	push	r1
     550:	0f 92       	push	r0
     552:	0f b6       	in	r0, 0x3f	; 63
     554:	0f 92       	push	r0
     556:	11 24       	eor	r1, r1
     558:	8f 93       	push	r24
     55a:	9f 93       	push	r25
     55c:	ef 93       	push	r30
     55e:	ff 93       	push	r31
    char data;
    unsigned char tmp;
    data = UDR0;
     560:	90 91 c6 00 	lds	r25, 0x00C6
    tmp = ( USART0_RxHead + 1 ) & USART0_RX_BUFFER_MASK;
     564:	80 91 b1 01 	lds	r24, 0x01B1
     568:	8f 5f       	subi	r24, 0xFF	; 255
     56a:	8f 71       	andi	r24, 0x1F	; 31
    USART0_RxHead = tmp;
     56c:	80 93 b1 01 	sts	0x01B1, r24
    USART0_RxBuf[tmp] = data;
     570:	e5 ed       	ldi	r30, 0xD5	; 213
     572:	f1 e0       	ldi	r31, 0x01	; 1
     574:	e8 0f       	add	r30, r24
     576:	f1 1d       	adc	r31, r1
     578:	90 83       	st	Z, r25
}
     57a:	ff 91       	pop	r31
     57c:	ef 91       	pop	r30
     57e:	9f 91       	pop	r25
     580:	8f 91       	pop	r24
     582:	0f 90       	pop	r0
     584:	0f be       	out	0x3f, r0	; 63
     586:	0f 90       	pop	r0
     588:	1f 90       	pop	r1
     58a:	18 95       	reti

0000058c <__vector_21>:

ISR(UART0_DATA_IRQ)
{
     58c:	1f 92       	push	r1
     58e:	0f 92       	push	r0
     590:	0f b6       	in	r0, 0x3f	; 63
     592:	0f 92       	push	r0
     594:	11 24       	eor	r1, r1
     596:	8f 93       	push	r24
     598:	9f 93       	push	r25
     59a:	ef 93       	push	r30
     59c:	ff 93       	push	r31
    unsigned char tmp;

    if ( USART0_TxHead != USART0_TxTail )
     59e:	90 91 b3 01 	lds	r25, 0x01B3
     5a2:	80 91 b4 01 	lds	r24, 0x01B4
     5a6:	98 17       	cp	r25, r24
     5a8:	69 f0       	breq	.+26     	; 0x5c4 <__vector_21+0x38>
    {
        tmp = ( USART0_TxTail + 1 ) & USART0_TX_BUFFER_MASK;
     5aa:	e0 91 b4 01 	lds	r30, 0x01B4
     5ae:	ef 5f       	subi	r30, 0xFF	; 255
     5b0:	ef 71       	andi	r30, 0x1F	; 31
        USART0_TxTail = tmp;
     5b2:	e0 93 b4 01 	sts	0x01B4, r30
        UDR0 = USART0_TxBuf[tmp];
     5b6:	f0 e0       	ldi	r31, 0x00	; 0
     5b8:	eb 54       	subi	r30, 0x4B	; 75
     5ba:	fe 4f       	sbci	r31, 0xFE	; 254
     5bc:	80 81       	ld	r24, Z
     5be:	80 93 c6 00 	sts	0x00C6, r24
     5c2:	05 c0       	rjmp	.+10     	; 0x5ce <__vector_21+0x42>
    }
    else
    {
        UCSR0B &= ~(1<<UDRIE0);
     5c4:	80 91 c1 00 	lds	r24, 0x00C1
     5c8:	8f 7d       	andi	r24, 0xDF	; 223
     5ca:	80 93 c1 00 	sts	0x00C1, r24
    }
}
     5ce:	ff 91       	pop	r31
     5d0:	ef 91       	pop	r30
     5d2:	9f 91       	pop	r25
     5d4:	8f 91       	pop	r24
     5d6:	0f 90       	pop	r0
     5d8:	0f be       	out	0x3f, r0	; 63
     5da:	0f 90       	pop	r0
     5dc:	1f 90       	pop	r1
     5de:	18 95       	reti

000005e0 <usart0_getc>:

char usart0_getc( void )
{
    unsigned char tmp;

    while ( USART0_RxHead == USART0_RxTail );
     5e0:	90 91 b1 01 	lds	r25, 0x01B1
     5e4:	80 91 b2 01 	lds	r24, 0x01B2
     5e8:	98 17       	cp	r25, r24
     5ea:	d1 f3       	breq	.-12     	; 0x5e0 <usart0_getc>
    tmp = ( USART0_RxTail + 1 ) & USART0_RX_BUFFER_MASK;
     5ec:	e0 91 b2 01 	lds	r30, 0x01B2
     5f0:	ef 5f       	subi	r30, 0xFF	; 255
     5f2:	ef 71       	andi	r30, 0x1F	; 31
    USART0_RxTail = tmp;
     5f4:	e0 93 b2 01 	sts	0x01B2, r30
    return USART0_RxBuf[tmp];
     5f8:	f0 e0       	ldi	r31, 0x00	; 0
     5fa:	eb 52       	subi	r30, 0x2B	; 43
     5fc:	fe 4f       	sbci	r31, 0xFE	; 254
}
     5fe:	80 81       	ld	r24, Z
     600:	08 95       	ret

00000602 <usart0_hasc>:

bool usart0_hasc() {
	return (USART0_RxHead != USART0_RxTail);
     602:	20 91 b1 01 	lds	r18, 0x01B1
     606:	90 91 b2 01 	lds	r25, 0x01B2
     60a:	81 e0       	ldi	r24, 0x01	; 1
     60c:	29 17       	cp	r18, r25
     60e:	09 f4       	brne	.+2      	; 0x612 <usart0_hasc+0x10>
     610:	80 e0       	ldi	r24, 0x00	; 0
}
     612:	08 95       	ret

00000614 <usart0_putc>:

void usart0_putc( char data )
{
    unsigned char tmp;
    tmp = ( USART0_TxHead + 1 ) & USART0_TX_BUFFER_MASK;
     614:	90 91 b3 01 	lds	r25, 0x01B3
     618:	9f 5f       	subi	r25, 0xFF	; 255
     61a:	9f 71       	andi	r25, 0x1F	; 31
    while ( tmp == USART0_TxTail );
     61c:	20 91 b4 01 	lds	r18, 0x01B4
     620:	92 17       	cp	r25, r18
     622:	e1 f3       	breq	.-8      	; 0x61c <usart0_putc+0x8>
    USART0_TxBuf[tmp] = data;
     624:	e9 2f       	mov	r30, r25
     626:	f0 e0       	ldi	r31, 0x00	; 0
     628:	eb 54       	subi	r30, 0x4B	; 75
     62a:	fe 4f       	sbci	r31, 0xFE	; 254
     62c:	80 83       	st	Z, r24
    USART0_TxHead = tmp;
     62e:	90 93 b3 01 	sts	0x01B3, r25
    UCSR0B |= (1<<UDRIE0);
     632:	80 91 c1 00 	lds	r24, 0x00C1
     636:	80 62       	ori	r24, 0x20	; 32
     638:	80 93 c1 00 	sts	0x00C1, r24
}
     63c:	08 95       	ret

0000063e <usart0_data_received>:

char usart0_data_received( void )
{
    return ( USART0_RxHead != USART0_RxTail );
     63e:	20 91 b1 01 	lds	r18, 0x01B1
     642:	90 91 b2 01 	lds	r25, 0x01B2
     646:	81 e0       	ldi	r24, 0x01	; 1
     648:	29 17       	cp	r18, r25
     64a:	09 f4       	brne	.+2      	; 0x64e <usart0_data_received+0x10>
     64c:	80 e0       	ldi	r24, 0x00	; 0
}
     64e:	08 95       	ret

00000650 <ftoa>:
}*/

#else

void ftoa(char * buf, double f, char d, char pad, char padchar)
{
     650:	5f 92       	push	r5
     652:	6f 92       	push	r6
     654:	7f 92       	push	r7
     656:	8f 92       	push	r8
     658:	9f 92       	push	r9
     65a:	af 92       	push	r10
     65c:	bf 92       	push	r11
     65e:	cf 92       	push	r12
     660:	df 92       	push	r13
     662:	ef 92       	push	r14
     664:	ff 92       	push	r15
     666:	0f 93       	push	r16
     668:	1f 93       	push	r17
     66a:	df 93       	push	r29
     66c:	cf 93       	push	r28
     66e:	cd b7       	in	r28, 0x3d	; 61
     670:	de b7       	in	r29, 0x3e	; 62
     672:	68 97       	sbiw	r28, 0x18	; 24
     674:	0f b6       	in	r0, 0x3f	; 63
     676:	f8 94       	cli
     678:	de bf       	out	0x3e, r29	; 62
     67a:	0f be       	out	0x3f, r0	; 63
     67c:	cd bf       	out	0x3d, r28	; 61
     67e:	3c 01       	movw	r6, r24
     680:	4a 01       	movw	r8, r20
     682:	5b 01       	movw	r10, r22
     684:	52 2e       	mov	r5, r18
     686:	10 2f       	mov	r17, r16
     688:	0e 2d       	mov	r16, r14
	char * p;
	const double powers[] = {1.0,10.0,100.0,1000.0,10000.0,100000.0};
     68a:	de 01       	movw	r26, r28
     68c:	11 96       	adiw	r26, 0x01	; 1
     68e:	e8 e8       	ldi	r30, 0x88	; 136
     690:	f1 e0       	ldi	r31, 0x01	; 1
     692:	88 e1       	ldi	r24, 0x18	; 24
     694:	01 90       	ld	r0, Z+
     696:	0d 92       	st	X+, r0
     698:	81 50       	subi	r24, 0x01	; 1
     69a:	e1 f7       	brne	.-8      	; 0x694 <ftoa+0x44>

	/* round */
	f = f>=0.0 ? (f*powers[d]+0.5)/powers[d] : (f*powers[d]-0.5)/powers[d];
     69c:	c5 01       	movw	r24, r10
     69e:	b4 01       	movw	r22, r8
     6a0:	20 e0       	ldi	r18, 0x00	; 0
     6a2:	30 e0       	ldi	r19, 0x00	; 0
     6a4:	a9 01       	movw	r20, r18
     6a6:	0e 94 ce 09 	call	0x139c	; 0x139c <__gesf2>
     6aa:	9e 01       	movw	r18, r28
     6ac:	2f 5f       	subi	r18, 0xFF	; 255
     6ae:	3f 4f       	sbci	r19, 0xFF	; 255
     6b0:	45 2d       	mov	r20, r5
     6b2:	50 e0       	ldi	r21, 0x00	; 0
     6b4:	87 fd       	sbrc	r24, 7
     6b6:	18 c0       	rjmp	.+48     	; 0x6e8 <ftoa+0x98>
     6b8:	fa 01       	movw	r30, r20
     6ba:	ee 0f       	add	r30, r30
     6bc:	ff 1f       	adc	r31, r31
     6be:	ee 0f       	add	r30, r30
     6c0:	ff 1f       	adc	r31, r31
     6c2:	e2 0f       	add	r30, r18
     6c4:	f3 1f       	adc	r31, r19
     6c6:	c0 80       	ld	r12, Z
     6c8:	d1 80       	ldd	r13, Z+1	; 0x01
     6ca:	e2 80       	ldd	r14, Z+2	; 0x02
     6cc:	f3 80       	ldd	r15, Z+3	; 0x03
     6ce:	c5 01       	movw	r24, r10
     6d0:	b4 01       	movw	r22, r8
     6d2:	a7 01       	movw	r20, r14
     6d4:	96 01       	movw	r18, r12
     6d6:	0e 94 d2 09 	call	0x13a4	; 0x13a4 <__mulsf3>
     6da:	20 e0       	ldi	r18, 0x00	; 0
     6dc:	30 e0       	ldi	r19, 0x00	; 0
     6de:	40 e0       	ldi	r20, 0x00	; 0
     6e0:	5f e3       	ldi	r21, 0x3F	; 63
     6e2:	0e 94 1b 08 	call	0x1036	; 0x1036 <__addsf3>
     6e6:	17 c0       	rjmp	.+46     	; 0x716 <ftoa+0xc6>
     6e8:	fa 01       	movw	r30, r20
     6ea:	ee 0f       	add	r30, r30
     6ec:	ff 1f       	adc	r31, r31
     6ee:	ee 0f       	add	r30, r30
     6f0:	ff 1f       	adc	r31, r31
     6f2:	e2 0f       	add	r30, r18
     6f4:	f3 1f       	adc	r31, r19
     6f6:	c0 80       	ld	r12, Z
     6f8:	d1 80       	ldd	r13, Z+1	; 0x01
     6fa:	e2 80       	ldd	r14, Z+2	; 0x02
     6fc:	f3 80       	ldd	r15, Z+3	; 0x03
     6fe:	c5 01       	movw	r24, r10
     700:	b4 01       	movw	r22, r8
     702:	a7 01       	movw	r20, r14
     704:	96 01       	movw	r18, r12
     706:	0e 94 d2 09 	call	0x13a4	; 0x13a4 <__mulsf3>
     70a:	20 e0       	ldi	r18, 0x00	; 0
     70c:	30 e0       	ldi	r19, 0x00	; 0
     70e:	40 e0       	ldi	r20, 0x00	; 0
     710:	5f e3       	ldi	r21, 0x3F	; 63
     712:	0e 94 1a 08 	call	0x1034	; 0x1034 <__subsf3>
     716:	a7 01       	movw	r20, r14
     718:	96 01       	movw	r18, r12
     71a:	0e 94 83 08 	call	0x1106	; 0x1106 <__divsf3>
     71e:	c6 2e       	mov	r12, r22
     720:	d7 2e       	mov	r13, r23
     722:	e8 2e       	mov	r14, r24
     724:	f9 2e       	mov	r15, r25

	/* special case */
	if (f<0.0 && f > -1.0) {
     726:	bb 24       	eor	r11, r11
     728:	b3 94       	inc	r11
     72a:	c7 01       	movw	r24, r14
     72c:	b6 01       	movw	r22, r12
     72e:	20 e0       	ldi	r18, 0x00	; 0
     730:	30 e0       	ldi	r19, 0x00	; 0
     732:	a9 01       	movw	r20, r18
     734:	0e 94 7f 08 	call	0x10fe	; 0x10fe <__cmpsf2>
     738:	87 fd       	sbrc	r24, 7
     73a:	02 c0       	rjmp	.+4      	; 0x740 <ftoa+0xf0>
     73c:	bb 24       	eor	r11, r11
     73e:	1a c0       	rjmp	.+52     	; 0x774 <ftoa+0x124>
     740:	c7 01       	movw	r24, r14
     742:	b6 01       	movw	r22, r12
     744:	20 e0       	ldi	r18, 0x00	; 0
     746:	30 e0       	ldi	r19, 0x00	; 0
     748:	40 e8       	ldi	r20, 0x80	; 128
     74a:	5f eb       	ldi	r21, 0xBF	; 191
     74c:	0e 94 ce 09 	call	0x139c	; 0x139c <__gesf2>
     750:	18 16       	cp	r1, r24
     752:	84 f4       	brge	.+32     	; 0x774 <ftoa+0x124>
		p = ltoa(buf,-1,pad,padchar);
     754:	c3 01       	movw	r24, r6
     756:	6f ef       	ldi	r22, 0xFF	; 255
     758:	7f ef       	ldi	r23, 0xFF	; 255
     75a:	41 2f       	mov	r20, r17
     75c:	50 e0       	ldi	r21, 0x00	; 0
     75e:	20 2f       	mov	r18, r16
     760:	30 e0       	ldi	r19, 0x00	; 0
     762:	0e 94 5a 0b 	call	0x16b4	; 0x16b4 <ltoa>
     766:	88 2e       	mov	r8, r24
     768:	99 2e       	mov	r9, r25
		*(p-1) = '0';
     76a:	f4 01       	movw	r30, r8
     76c:	31 97       	sbiw	r30, 0x01	; 1
     76e:	80 e3       	ldi	r24, 0x30	; 48
     770:	80 83       	st	Z, r24

	/* round */
	f = f>=0.0 ? (f*powers[d]+0.5)/powers[d] : (f*powers[d]-0.5)/powers[d];

	/* special case */
	if (f<0.0 && f > -1.0) {
     772:	0a c0       	rjmp	.+20     	; 0x788 <ftoa+0x138>
		p = ltoa(buf,-1,pad,padchar);
		*(p-1) = '0';
	}
	else
		p = ltoa(buf,f,pad,padchar);
     774:	c3 01       	movw	r24, r6
     776:	b7 01       	movw	r22, r14
     778:	a6 01       	movw	r20, r12
     77a:	21 2f       	mov	r18, r17
     77c:	30 e0       	ldi	r19, 0x00	; 0
     77e:	10 e0       	ldi	r17, 0x00	; 0
     780:	0e 94 5a 0b 	call	0x16b4	; 0x16b4 <ltoa>
     784:	88 2e       	mov	r8, r24
     786:	99 2e       	mov	r9, r25

	*p++ = '.';
     788:	8e e2       	ldi	r24, 0x2E	; 46
     78a:	f4 01       	movw	r30, r8
     78c:	81 93       	st	Z+, r24
     78e:	4f 01       	movw	r8, r30

	if (f<0.0)
     790:	bb 20       	and	r11, r11
     792:	21 f0       	breq	.+8      	; 0x79c <ftoa+0x14c>
		f = -f;
     794:	f7 fa       	bst	r15, 7
     796:	f0 94       	com	r15
     798:	f7 f8       	bld	r15, 7
     79a:	f0 94       	com	r15
	
	f -= (long) f;
     79c:	c7 01       	movw	r24, r14
     79e:	b6 01       	movw	r22, r12
     7a0:	0e 94 eb 08 	call	0x11d6	; 0x11d6 <__fixsfsi>
     7a4:	0e 94 1e 09 	call	0x123c	; 0x123c <__floatsisf>
     7a8:	9b 01       	movw	r18, r22
     7aa:	ac 01       	movw	r20, r24
     7ac:	c7 01       	movw	r24, r14
     7ae:	b6 01       	movw	r22, r12
     7b0:	0e 94 1a 08 	call	0x1034	; 0x1034 <__subsf3>
	f *= powers[d];
     7b4:	c5 2c       	mov	r12, r5
     7b6:	dd 24       	eor	r13, r13
     7b8:	f6 01       	movw	r30, r12
     7ba:	ee 0f       	add	r30, r30
     7bc:	ff 1f       	adc	r31, r31
     7be:	ee 0f       	add	r30, r30
     7c0:	ff 1f       	adc	r31, r31
     7c2:	ec 0f       	add	r30, r28
     7c4:	fd 1f       	adc	r31, r29
     7c6:	21 81       	ldd	r18, Z+1	; 0x01
     7c8:	32 81       	ldd	r19, Z+2	; 0x02
     7ca:	43 81       	ldd	r20, Z+3	; 0x03
     7cc:	54 81       	ldd	r21, Z+4	; 0x04
     7ce:	0e 94 d2 09 	call	0x13a4	; 0x13a4 <__mulsf3>
	ltoa(p,(long)f,d,0);
     7d2:	0e 94 eb 08 	call	0x11d6	; 0x11d6 <__fixsfsi>
     7d6:	ab 01       	movw	r20, r22
     7d8:	bc 01       	movw	r22, r24
     7da:	c4 01       	movw	r24, r8
     7dc:	96 01       	movw	r18, r12
     7de:	00 e0       	ldi	r16, 0x00	; 0
     7e0:	10 e0       	ldi	r17, 0x00	; 0
     7e2:	0e 94 5a 0b 	call	0x16b4	; 0x16b4 <ltoa>
}
     7e6:	68 96       	adiw	r28, 0x18	; 24
     7e8:	0f b6       	in	r0, 0x3f	; 63
     7ea:	f8 94       	cli
     7ec:	de bf       	out	0x3e, r29	; 62
     7ee:	0f be       	out	0x3f, r0	; 63
     7f0:	cd bf       	out	0x3d, r28	; 61
     7f2:	cf 91       	pop	r28
     7f4:	df 91       	pop	r29
     7f6:	1f 91       	pop	r17
     7f8:	0f 91       	pop	r16
     7fa:	ff 90       	pop	r15
     7fc:	ef 90       	pop	r14
     7fe:	df 90       	pop	r13
     800:	cf 90       	pop	r12
     802:	bf 90       	pop	r11
     804:	af 90       	pop	r10
     806:	9f 90       	pop	r9
     808:	8f 90       	pop	r8
     80a:	7f 90       	pop	r7
     80c:	6f 90       	pop	r6
     80e:	5f 90       	pop	r5
     810:	08 95       	ret

00000812 <ctob>:
void ctob(char * buf, unsigned char val)
{
	signed char i;

	buf+=8;
	*buf-- = 0;
     812:	fc 01       	movw	r30, r24
     814:	10 86       	std	Z+8, r1	; 0x08
     816:	38 96       	adiw	r30, 0x08	; 8
	
    for (i=7; i>=0; i--) {
        *buf-- = val%2 + '0';
     818:	26 2f       	mov	r18, r22
     81a:	21 70       	andi	r18, 0x01	; 1
     81c:	20 5d       	subi	r18, 0xD0	; 208
     81e:	22 93       	st	-Z, r18
        val >>= 1;
     820:	66 95       	lsr	r22
	signed char i;

	buf+=8;
	*buf-- = 0;
	
    for (i=7; i>=0; i--) {
     822:	e8 17       	cp	r30, r24
     824:	f9 07       	cpc	r31, r25
     826:	c1 f7       	brne	.-16     	; 0x818 <ctob+0x6>
        *buf-- = val%2 + '0';
        val >>= 1;
    }
}
     828:	08 95       	ret

0000082a <itob>:
void itob(char * buf, unsigned int val)
{
	signed char i;

	buf+=16;
	*buf-- = 0;
     82a:	fc 01       	movw	r30, r24
     82c:	10 8a       	std	Z+16, r1	; 0x10
     82e:	70 96       	adiw	r30, 0x10	; 16
	
    for (i=15; i>=0; i--) {
        *buf-- = val%2 + '0';
     830:	26 2f       	mov	r18, r22
     832:	21 70       	andi	r18, 0x01	; 1
     834:	20 5d       	subi	r18, 0xD0	; 208
     836:	22 93       	st	-Z, r18
        val >>= 1;
     838:	76 95       	lsr	r23
     83a:	67 95       	ror	r22
	signed char i;

	buf+=16;
	*buf-- = 0;
	
    for (i=15; i>=0; i--) {
     83c:	e8 17       	cp	r30, r24
     83e:	f9 07       	cpc	r31, r25
     840:	b9 f7       	brne	.-18     	; 0x830 <itob+0x6>
        *buf-- = val%2 + '0';
        val >>= 1;
    }
}
     842:	08 95       	ret

00000844 <ctoh>:

/*
** convert char to hex string
*/
void ctoh(char * buf, unsigned char val)
{
     844:	fc 01       	movw	r30, r24
	buf+=2;
	*buf-- = 0;
     846:	12 82       	std	Z+2, r1	; 0x02

	*buf-- = val%16 < 10 ? val%16 + '0' : val%16 + 'a'-10;
     848:	86 2f       	mov	r24, r22
     84a:	8f 70       	andi	r24, 0x0F	; 15
     84c:	8a 30       	cpi	r24, 0x0A	; 10
     84e:	10 f4       	brcc	.+4      	; 0x854 <ctoh+0x10>
     850:	80 5d       	subi	r24, 0xD0	; 208
     852:	01 c0       	rjmp	.+2      	; 0x856 <ctoh+0x12>
     854:	89 5a       	subi	r24, 0xA9	; 169
     856:	81 83       	std	Z+1, r24	; 0x01
	val >>= 4;
	*buf = val%16 < 10 ? val%16 + '0' : val%16 + 'a'-10;
     858:	62 95       	swap	r22
     85a:	6f 70       	andi	r22, 0x0F	; 15
     85c:	6a 30       	cpi	r22, 0x0A	; 10
     85e:	10 f4       	brcc	.+4      	; 0x864 <ctoh+0x20>
     860:	60 5d       	subi	r22, 0xD0	; 208
     862:	01 c0       	rjmp	.+2      	; 0x866 <ctoh+0x22>
     864:	69 5a       	subi	r22, 0xA9	; 169
     866:	60 83       	st	Z, r22
}
     868:	08 95       	ret

0000086a <itoh>:
void itoh(char * buf, unsigned int val)
{
	char i;

	buf+=4;
	*buf-- = 0;
     86a:	fc 01       	movw	r30, r24
     86c:	14 82       	std	Z+4, r1	; 0x04
     86e:	34 96       	adiw	r30, 0x04	; 4

	for (i=0;i<4;i++) {
		*buf-- = val%16 < 10 ? val%16 + '0' : val%16 + 'a'-10;
     870:	9b 01       	movw	r18, r22
     872:	2f 70       	andi	r18, 0x0F	; 15
     874:	30 70       	andi	r19, 0x00	; 0
     876:	46 2f       	mov	r20, r22
     878:	4f 70       	andi	r20, 0x0F	; 15
     87a:	2a 30       	cpi	r18, 0x0A	; 10
     87c:	31 05       	cpc	r19, r1
     87e:	18 f4       	brcc	.+6      	; 0x886 <itoh+0x1c>
     880:	24 2f       	mov	r18, r20
     882:	20 5d       	subi	r18, 0xD0	; 208
     884:	02 c0       	rjmp	.+4      	; 0x88a <itoh+0x20>
     886:	24 2f       	mov	r18, r20
     888:	29 5a       	subi	r18, 0xA9	; 169
     88a:	22 93       	st	-Z, r18
	char i;

	buf+=4;
	*buf-- = 0;

	for (i=0;i<4;i++) {
     88c:	e8 17       	cp	r30, r24
     88e:	f9 07       	cpc	r31, r25
     890:	31 f0       	breq	.+12     	; 0x89e <itoh+0x34>
		*buf-- = val%16 < 10 ? val%16 + '0' : val%16 + 'a'-10;
		val >>= 4;
     892:	b4 e0       	ldi	r27, 0x04	; 4
     894:	76 95       	lsr	r23
     896:	67 95       	ror	r22
     898:	ba 95       	dec	r27
     89a:	e1 f7       	brne	.-8      	; 0x894 <itoh+0x2a>
     89c:	e9 cf       	rjmp	.-46     	; 0x870 <itoh+0x6>
     89e:	08 95       	ret

000008a0 <ltoh>:

/*
** convert long to hex string
*/
void ltoh(char * buf, unsigned long val)
{
     8a0:	0f 93       	push	r16
     8a2:	1f 93       	push	r17
	char i;

	buf+=8;
	*buf-- = 0;
     8a4:	fc 01       	movw	r30, r24
     8a6:	10 86       	std	Z+8, r1	; 0x08
     8a8:	38 96       	adiw	r30, 0x08	; 8

	for (i=0;i<8;i++) {
		*buf-- = val%16 < 10 ? val%16 + '0' : val%16 + 'a'-10;
     8aa:	8a 01       	movw	r16, r20
     8ac:	9b 01       	movw	r18, r22
     8ae:	0f 70       	andi	r16, 0x0F	; 15
     8b0:	10 70       	andi	r17, 0x00	; 0
     8b2:	20 70       	andi	r18, 0x00	; 0
     8b4:	30 70       	andi	r19, 0x00	; 0
     8b6:	a4 2f       	mov	r26, r20
     8b8:	af 70       	andi	r26, 0x0F	; 15
     8ba:	0a 30       	cpi	r16, 0x0A	; 10
     8bc:	11 05       	cpc	r17, r1
     8be:	21 05       	cpc	r18, r1
     8c0:	31 05       	cpc	r19, r1
     8c2:	18 f4       	brcc	.+6      	; 0x8ca <ltoh+0x2a>
     8c4:	2a 2f       	mov	r18, r26
     8c6:	20 5d       	subi	r18, 0xD0	; 208
     8c8:	02 c0       	rjmp	.+4      	; 0x8ce <ltoh+0x2e>
     8ca:	2a 2f       	mov	r18, r26
     8cc:	29 5a       	subi	r18, 0xA9	; 169
     8ce:	22 93       	st	-Z, r18
	char i;

	buf+=8;
	*buf-- = 0;

	for (i=0;i<8;i++) {
     8d0:	e8 17       	cp	r30, r24
     8d2:	f9 07       	cpc	r31, r25
     8d4:	41 f0       	breq	.+16     	; 0x8e6 <ltoh+0x46>
		*buf-- = val%16 < 10 ? val%16 + '0' : val%16 + 'a'-10;
		val >>= 4;
     8d6:	14 e0       	ldi	r17, 0x04	; 4
     8d8:	76 95       	lsr	r23
     8da:	67 95       	ror	r22
     8dc:	57 95       	ror	r21
     8de:	47 95       	ror	r20
     8e0:	1a 95       	dec	r17
     8e2:	d1 f7       	brne	.-12     	; 0x8d8 <ltoh+0x38>
     8e4:	e2 cf       	rjmp	.-60     	; 0x8aa <ltoh+0xa>
	}
}
     8e6:	1f 91       	pop	r17
     8e8:	0f 91       	pop	r16
     8ea:	08 95       	ret

000008ec <crc8>:
	uint16_t loop_count;
	uint8_t  bit_counter;
	uint8_t  b;
	uint8_t  feedback_bit;
	
	crc = CRC8INIT;
     8ec:	28 2f       	mov	r18, r24
     8ee:	39 2f       	mov	r19, r25
     8f0:	f9 01       	movw	r30, r18

	for (loop_count = 0; loop_count != number_of_bytes_in_data; loop_count++)
     8f2:	20 e0       	ldi	r18, 0x00	; 0
     8f4:	30 e0       	ldi	r19, 0x00	; 0
	uint16_t loop_count;
	uint8_t  bit_counter;
	uint8_t  b;
	uint8_t  feedback_bit;
	
	crc = CRC8INIT;
     8f6:	80 e0       	ldi	r24, 0x00	; 0
		bit_counter = 8;
		do {
			feedback_bit = (crc ^ b) & 0x01;
	
			if ( feedback_bit == 0x01 ) {
				crc = crc ^ CRC8POLY;
     8f8:	a8 e1       	ldi	r26, 0x18	; 24
	uint8_t  b;
	uint8_t  feedback_bit;
	
	crc = CRC8INIT;

	for (loop_count = 0; loop_count != number_of_bytes_in_data; loop_count++)
     8fa:	12 c0       	rjmp	.+36     	; 0x920 <crc8+0x34>
	{
		b = data[loop_count];
     8fc:	41 91       	ld	r20, Z+
		
		bit_counter = 8;
     8fe:	98 e0       	ldi	r25, 0x08	; 8
		do {
			feedback_bit = (crc ^ b) & 0x01;
     900:	54 2f       	mov	r21, r20
     902:	58 27       	eor	r21, r24
	
			if ( feedback_bit == 0x01 ) {
     904:	b5 2f       	mov	r27, r21
     906:	b1 70       	andi	r27, 0x01	; 1
     908:	50 fd       	sbrc	r21, 0
				crc = crc ^ CRC8POLY;
     90a:	8a 27       	eor	r24, r26
			}
			crc = (crc >> 1) & 0x7F;
     90c:	86 95       	lsr	r24
			if ( feedback_bit == 0x01 ) {
     90e:	b1 30       	cpi	r27, 0x01	; 1
     910:	09 f4       	brne	.+2      	; 0x914 <crc8+0x28>
				crc = crc | 0x80;
     912:	80 68       	ori	r24, 0x80	; 128
			}
		
			b = b >> 1;
			bit_counter--;
     914:	91 50       	subi	r25, 0x01	; 1
		
		} while (bit_counter > 0);
     916:	11 f0       	breq	.+4      	; 0x91c <crc8+0x30>
			crc = (crc >> 1) & 0x7F;
			if ( feedback_bit == 0x01 ) {
				crc = crc | 0x80;
			}
		
			b = b >> 1;
     918:	46 95       	lsr	r20
     91a:	f2 cf       	rjmp	.-28     	; 0x900 <crc8+0x14>
	uint8_t  b;
	uint8_t  feedback_bit;
	
	crc = CRC8INIT;

	for (loop_count = 0; loop_count != number_of_bytes_in_data; loop_count++)
     91c:	2f 5f       	subi	r18, 0xFF	; 255
     91e:	3f 4f       	sbci	r19, 0xFF	; 255
     920:	26 17       	cp	r18, r22
     922:	37 07       	cpc	r19, r23
     924:	59 f7       	brne	.-42     	; 0x8fc <crc8+0x10>
		
		} while (bit_counter > 0);
	}
	
	return crc;
}
     926:	08 95       	ret

00000928 <vfprintf>:
     928:	a3 e1       	ldi	r26, 0x13	; 19
     92a:	b0 e0       	ldi	r27, 0x00	; 0
     92c:	ea e9       	ldi	r30, 0x9A	; 154
     92e:	f4 e0       	ldi	r31, 0x04	; 4
     930:	0c 94 35 0a 	jmp	0x146a	; 0x146a <__prologue_saves__>
     934:	6c 01       	movw	r12, r24
     936:	7f 87       	std	Y+15, r23	; 0x0f
     938:	6e 87       	std	Y+14, r22	; 0x0e
     93a:	fc 01       	movw	r30, r24
     93c:	17 82       	std	Z+7, r1	; 0x07
     93e:	16 82       	std	Z+6, r1	; 0x06
     940:	83 81       	ldd	r24, Z+3	; 0x03
     942:	81 fd       	sbrc	r24, 1
     944:	04 c0       	rjmp	.+8      	; 0x94e <vfprintf+0x26>
     946:	6f c3       	rjmp	.+1758   	; 0x1026 <vfprintf+0x6fe>
     948:	4c 85       	ldd	r20, Y+12	; 0x0c
     94a:	5d 85       	ldd	r21, Y+13	; 0x0d
     94c:	04 c0       	rjmp	.+8      	; 0x956 <vfprintf+0x2e>
     94e:	1e 01       	movw	r2, r28
     950:	08 94       	sec
     952:	21 1c       	adc	r2, r1
     954:	31 1c       	adc	r3, r1
     956:	f6 01       	movw	r30, r12
     958:	93 81       	ldd	r25, Z+3	; 0x03
     95a:	ee 85       	ldd	r30, Y+14	; 0x0e
     95c:	ff 85       	ldd	r31, Y+15	; 0x0f
     95e:	93 fd       	sbrc	r25, 3
     960:	85 91       	lpm	r24, Z+
     962:	93 ff       	sbrs	r25, 3
     964:	81 91       	ld	r24, Z+
     966:	ff 87       	std	Y+15, r31	; 0x0f
     968:	ee 87       	std	Y+14, r30	; 0x0e
     96a:	88 23       	and	r24, r24
     96c:	09 f4       	brne	.+2      	; 0x970 <vfprintf+0x48>
     96e:	57 c3       	rjmp	.+1710   	; 0x101e <vfprintf+0x6f6>
     970:	85 32       	cpi	r24, 0x25	; 37
     972:	41 f4       	brne	.+16     	; 0x984 <vfprintf+0x5c>
     974:	93 fd       	sbrc	r25, 3
     976:	85 91       	lpm	r24, Z+
     978:	93 ff       	sbrs	r25, 3
     97a:	81 91       	ld	r24, Z+
     97c:	ff 87       	std	Y+15, r31	; 0x0f
     97e:	ee 87       	std	Y+14, r30	; 0x0e
     980:	85 32       	cpi	r24, 0x25	; 37
     982:	59 f4       	brne	.+22     	; 0x99a <vfprintf+0x72>
     984:	90 e0       	ldi	r25, 0x00	; 0
     986:	b6 01       	movw	r22, r12
     988:	4a 8b       	std	Y+18, r20	; 0x12
     98a:	5b 8b       	std	Y+19, r21	; 0x13
     98c:	0e 94 8e 0b 	call	0x171c	; 0x171c <fputc>
     990:	4a 89       	ldd	r20, Y+18	; 0x12
     992:	5b 89       	ldd	r21, Y+19	; 0x13
     994:	5d 87       	std	Y+13, r21	; 0x0d
     996:	4c 87       	std	Y+12, r20	; 0x0c
     998:	d7 cf       	rjmp	.-82     	; 0x948 <vfprintf+0x20>
     99a:	10 e0       	ldi	r17, 0x00	; 0
     99c:	ff 24       	eor	r15, r15
     99e:	00 e0       	ldi	r16, 0x00	; 0
     9a0:	00 32       	cpi	r16, 0x20	; 32
     9a2:	b0 f4       	brcc	.+44     	; 0x9d0 <vfprintf+0xa8>
     9a4:	8b 32       	cpi	r24, 0x2B	; 43
     9a6:	69 f0       	breq	.+26     	; 0x9c2 <vfprintf+0x9a>
     9a8:	8c 32       	cpi	r24, 0x2C	; 44
     9aa:	28 f4       	brcc	.+10     	; 0x9b6 <vfprintf+0x8e>
     9ac:	80 32       	cpi	r24, 0x20	; 32
     9ae:	51 f0       	breq	.+20     	; 0x9c4 <vfprintf+0x9c>
     9b0:	83 32       	cpi	r24, 0x23	; 35
     9b2:	71 f4       	brne	.+28     	; 0x9d0 <vfprintf+0xa8>
     9b4:	0b c0       	rjmp	.+22     	; 0x9cc <vfprintf+0xa4>
     9b6:	8d 32       	cpi	r24, 0x2D	; 45
     9b8:	39 f0       	breq	.+14     	; 0x9c8 <vfprintf+0xa0>
     9ba:	80 33       	cpi	r24, 0x30	; 48
     9bc:	49 f4       	brne	.+18     	; 0x9d0 <vfprintf+0xa8>
     9be:	01 60       	ori	r16, 0x01	; 1
     9c0:	2c c0       	rjmp	.+88     	; 0xa1a <vfprintf+0xf2>
     9c2:	02 60       	ori	r16, 0x02	; 2
     9c4:	04 60       	ori	r16, 0x04	; 4
     9c6:	29 c0       	rjmp	.+82     	; 0xa1a <vfprintf+0xf2>
     9c8:	08 60       	ori	r16, 0x08	; 8
     9ca:	27 c0       	rjmp	.+78     	; 0xa1a <vfprintf+0xf2>
     9cc:	00 61       	ori	r16, 0x10	; 16
     9ce:	25 c0       	rjmp	.+74     	; 0xa1a <vfprintf+0xf2>
     9d0:	07 fd       	sbrc	r16, 7
     9d2:	2e c0       	rjmp	.+92     	; 0xa30 <vfprintf+0x108>
     9d4:	28 2f       	mov	r18, r24
     9d6:	20 53       	subi	r18, 0x30	; 48
     9d8:	2a 30       	cpi	r18, 0x0A	; 10
     9da:	98 f4       	brcc	.+38     	; 0xa02 <vfprintf+0xda>
     9dc:	06 ff       	sbrs	r16, 6
     9de:	08 c0       	rjmp	.+16     	; 0x9f0 <vfprintf+0xc8>
     9e0:	81 2f       	mov	r24, r17
     9e2:	88 0f       	add	r24, r24
     9e4:	18 2f       	mov	r17, r24
     9e6:	11 0f       	add	r17, r17
     9e8:	11 0f       	add	r17, r17
     9ea:	18 0f       	add	r17, r24
     9ec:	12 0f       	add	r17, r18
     9ee:	15 c0       	rjmp	.+42     	; 0xa1a <vfprintf+0xf2>
     9f0:	8f 2d       	mov	r24, r15
     9f2:	88 0f       	add	r24, r24
     9f4:	f8 2e       	mov	r15, r24
     9f6:	ff 0c       	add	r15, r15
     9f8:	ff 0c       	add	r15, r15
     9fa:	f8 0e       	add	r15, r24
     9fc:	f2 0e       	add	r15, r18
     9fe:	00 62       	ori	r16, 0x20	; 32
     a00:	0c c0       	rjmp	.+24     	; 0xa1a <vfprintf+0xf2>
     a02:	8e 32       	cpi	r24, 0x2E	; 46
     a04:	21 f4       	brne	.+8      	; 0xa0e <vfprintf+0xe6>
     a06:	06 fd       	sbrc	r16, 6
     a08:	0a c3       	rjmp	.+1556   	; 0x101e <vfprintf+0x6f6>
     a0a:	00 64       	ori	r16, 0x40	; 64
     a0c:	06 c0       	rjmp	.+12     	; 0xa1a <vfprintf+0xf2>
     a0e:	8c 36       	cpi	r24, 0x6C	; 108
     a10:	11 f4       	brne	.+4      	; 0xa16 <vfprintf+0xee>
     a12:	00 68       	ori	r16, 0x80	; 128
     a14:	02 c0       	rjmp	.+4      	; 0xa1a <vfprintf+0xf2>
     a16:	88 36       	cpi	r24, 0x68	; 104
     a18:	59 f4       	brne	.+22     	; 0xa30 <vfprintf+0x108>
     a1a:	ee 85       	ldd	r30, Y+14	; 0x0e
     a1c:	ff 85       	ldd	r31, Y+15	; 0x0f
     a1e:	93 fd       	sbrc	r25, 3
     a20:	85 91       	lpm	r24, Z+
     a22:	93 ff       	sbrs	r25, 3
     a24:	81 91       	ld	r24, Z+
     a26:	ff 87       	std	Y+15, r31	; 0x0f
     a28:	ee 87       	std	Y+14, r30	; 0x0e
     a2a:	88 23       	and	r24, r24
     a2c:	09 f0       	breq	.+2      	; 0xa30 <vfprintf+0x108>
     a2e:	b8 cf       	rjmp	.-144    	; 0x9a0 <vfprintf+0x78>
     a30:	98 2f       	mov	r25, r24
     a32:	95 54       	subi	r25, 0x45	; 69
     a34:	93 30       	cpi	r25, 0x03	; 3
     a36:	18 f4       	brcc	.+6      	; 0xa3e <vfprintf+0x116>
     a38:	00 61       	ori	r16, 0x10	; 16
     a3a:	80 5e       	subi	r24, 0xE0	; 224
     a3c:	06 c0       	rjmp	.+12     	; 0xa4a <vfprintf+0x122>
     a3e:	98 2f       	mov	r25, r24
     a40:	95 56       	subi	r25, 0x65	; 101
     a42:	93 30       	cpi	r25, 0x03	; 3
     a44:	08 f0       	brcs	.+2      	; 0xa48 <vfprintf+0x120>
     a46:	9b c1       	rjmp	.+822    	; 0xd7e <vfprintf+0x456>
     a48:	0f 7e       	andi	r16, 0xEF	; 239
     a4a:	06 ff       	sbrs	r16, 6
     a4c:	16 e0       	ldi	r17, 0x06	; 6
     a4e:	6f e3       	ldi	r22, 0x3F	; 63
     a50:	e6 2e       	mov	r14, r22
     a52:	e0 22       	and	r14, r16
     a54:	85 36       	cpi	r24, 0x65	; 101
     a56:	19 f4       	brne	.+6      	; 0xa5e <vfprintf+0x136>
     a58:	f0 e4       	ldi	r31, 0x40	; 64
     a5a:	ef 2a       	or	r14, r31
     a5c:	07 c0       	rjmp	.+14     	; 0xa6c <vfprintf+0x144>
     a5e:	86 36       	cpi	r24, 0x66	; 102
     a60:	19 f4       	brne	.+6      	; 0xa68 <vfprintf+0x140>
     a62:	20 e8       	ldi	r18, 0x80	; 128
     a64:	e2 2a       	or	r14, r18
     a66:	02 c0       	rjmp	.+4      	; 0xa6c <vfprintf+0x144>
     a68:	11 11       	cpse	r17, r1
     a6a:	11 50       	subi	r17, 0x01	; 1
     a6c:	e7 fe       	sbrs	r14, 7
     a6e:	06 c0       	rjmp	.+12     	; 0xa7c <vfprintf+0x154>
     a70:	1c 33       	cpi	r17, 0x3C	; 60
     a72:	40 f4       	brcc	.+16     	; 0xa84 <vfprintf+0x15c>
     a74:	91 2e       	mov	r9, r17
     a76:	93 94       	inc	r9
     a78:	27 e0       	ldi	r18, 0x07	; 7
     a7a:	0b c0       	rjmp	.+22     	; 0xa92 <vfprintf+0x16a>
     a7c:	18 30       	cpi	r17, 0x08	; 8
     a7e:	30 f4       	brcc	.+12     	; 0xa8c <vfprintf+0x164>
     a80:	21 2f       	mov	r18, r17
     a82:	06 c0       	rjmp	.+12     	; 0xa90 <vfprintf+0x168>
     a84:	27 e0       	ldi	r18, 0x07	; 7
     a86:	3c e3       	ldi	r19, 0x3C	; 60
     a88:	93 2e       	mov	r9, r19
     a8a:	03 c0       	rjmp	.+6      	; 0xa92 <vfprintf+0x16a>
     a8c:	27 e0       	ldi	r18, 0x07	; 7
     a8e:	17 e0       	ldi	r17, 0x07	; 7
     a90:	99 24       	eor	r9, r9
     a92:	ca 01       	movw	r24, r20
     a94:	04 96       	adiw	r24, 0x04	; 4
     a96:	9d 87       	std	Y+13, r25	; 0x0d
     a98:	8c 87       	std	Y+12, r24	; 0x0c
     a9a:	fa 01       	movw	r30, r20
     a9c:	60 81       	ld	r22, Z
     a9e:	71 81       	ldd	r23, Z+1	; 0x01
     aa0:	82 81       	ldd	r24, Z+2	; 0x02
     aa2:	93 81       	ldd	r25, Z+3	; 0x03
     aa4:	a1 01       	movw	r20, r2
     aa6:	09 2d       	mov	r16, r9
     aa8:	0e 94 6c 0a 	call	0x14d8	; 0x14d8 <__ftoa_engine>
     aac:	5c 01       	movw	r10, r24
     aae:	69 80       	ldd	r6, Y+1	; 0x01
     ab0:	26 2d       	mov	r18, r6
     ab2:	30 e0       	ldi	r19, 0x00	; 0
     ab4:	39 8b       	std	Y+17, r19	; 0x11
     ab6:	28 8b       	std	Y+16, r18	; 0x10
     ab8:	60 fe       	sbrs	r6, 0
     aba:	03 c0       	rjmp	.+6      	; 0xac2 <vfprintf+0x19a>
     abc:	38 89       	ldd	r19, Y+16	; 0x10
     abe:	33 ff       	sbrs	r19, 3
     ac0:	06 c0       	rjmp	.+12     	; 0xace <vfprintf+0x1a6>
     ac2:	e1 fc       	sbrc	r14, 1
     ac4:	06 c0       	rjmp	.+12     	; 0xad2 <vfprintf+0x1aa>
     ac6:	e2 fe       	sbrs	r14, 2
     ac8:	06 c0       	rjmp	.+12     	; 0xad6 <vfprintf+0x1ae>
     aca:	00 e2       	ldi	r16, 0x20	; 32
     acc:	05 c0       	rjmp	.+10     	; 0xad8 <vfprintf+0x1b0>
     ace:	0d e2       	ldi	r16, 0x2D	; 45
     ad0:	03 c0       	rjmp	.+6      	; 0xad8 <vfprintf+0x1b0>
     ad2:	0b e2       	ldi	r16, 0x2B	; 43
     ad4:	01 c0       	rjmp	.+2      	; 0xad8 <vfprintf+0x1b0>
     ad6:	00 e0       	ldi	r16, 0x00	; 0
     ad8:	88 89       	ldd	r24, Y+16	; 0x10
     ada:	99 89       	ldd	r25, Y+17	; 0x11
     adc:	8c 70       	andi	r24, 0x0C	; 12
     ade:	90 70       	andi	r25, 0x00	; 0
     ae0:	00 97       	sbiw	r24, 0x00	; 0
     ae2:	c1 f1       	breq	.+112    	; 0xb54 <vfprintf+0x22c>
     ae4:	00 23       	and	r16, r16
     ae6:	11 f0       	breq	.+4      	; 0xaec <vfprintf+0x1c4>
     ae8:	84 e0       	ldi	r24, 0x04	; 4
     aea:	01 c0       	rjmp	.+2      	; 0xaee <vfprintf+0x1c6>
     aec:	83 e0       	ldi	r24, 0x03	; 3
     aee:	8f 15       	cp	r24, r15
     af0:	58 f4       	brcc	.+22     	; 0xb08 <vfprintf+0x1e0>
     af2:	f8 1a       	sub	r15, r24
     af4:	e3 fc       	sbrc	r14, 3
     af6:	09 c0       	rjmp	.+18     	; 0xb0a <vfprintf+0x1e2>
     af8:	80 e2       	ldi	r24, 0x20	; 32
     afa:	90 e0       	ldi	r25, 0x00	; 0
     afc:	b6 01       	movw	r22, r12
     afe:	0e 94 8e 0b 	call	0x171c	; 0x171c <fputc>
     b02:	fa 94       	dec	r15
     b04:	c9 f7       	brne	.-14     	; 0xaf8 <vfprintf+0x1d0>
     b06:	01 c0       	rjmp	.+2      	; 0xb0a <vfprintf+0x1e2>
     b08:	ff 24       	eor	r15, r15
     b0a:	00 23       	and	r16, r16
     b0c:	29 f0       	breq	.+10     	; 0xb18 <vfprintf+0x1f0>
     b0e:	80 2f       	mov	r24, r16
     b10:	90 e0       	ldi	r25, 0x00	; 0
     b12:	b6 01       	movw	r22, r12
     b14:	0e 94 8e 0b 	call	0x171c	; 0x171c <fputc>
     b18:	88 89       	ldd	r24, Y+16	; 0x10
     b1a:	83 fd       	sbrc	r24, 3
     b1c:	03 c0       	rjmp	.+6      	; 0xb24 <vfprintf+0x1fc>
     b1e:	00 e8       	ldi	r16, 0x80	; 128
     b20:	10 e0       	ldi	r17, 0x00	; 0
     b22:	0e c0       	rjmp	.+28     	; 0xb40 <vfprintf+0x218>
     b24:	0c e7       	ldi	r16, 0x7C	; 124
     b26:	10 e0       	ldi	r17, 0x00	; 0
     b28:	0b c0       	rjmp	.+22     	; 0xb40 <vfprintf+0x218>
     b2a:	a1 14       	cp	r10, r1
     b2c:	b1 04       	cpc	r11, r1
     b2e:	09 f0       	breq	.+2      	; 0xb32 <vfprintf+0x20a>
     b30:	80 52       	subi	r24, 0x20	; 32
     b32:	90 e0       	ldi	r25, 0x00	; 0
     b34:	b6 01       	movw	r22, r12
     b36:	0e 94 8e 0b 	call	0x171c	; 0x171c <fputc>
     b3a:	0f 5f       	subi	r16, 0xFF	; 255
     b3c:	1f 4f       	sbci	r17, 0xFF	; 255
     b3e:	05 c0       	rjmp	.+10     	; 0xb4a <vfprintf+0x222>
     b40:	ae 2c       	mov	r10, r14
     b42:	bb 24       	eor	r11, r11
     b44:	90 e1       	ldi	r25, 0x10	; 16
     b46:	a9 22       	and	r10, r25
     b48:	bb 24       	eor	r11, r11
     b4a:	f8 01       	movw	r30, r16
     b4c:	84 91       	lpm	r24, Z+
     b4e:	88 23       	and	r24, r24
     b50:	61 f7       	brne	.-40     	; 0xb2a <vfprintf+0x202>
     b52:	62 c2       	rjmp	.+1220   	; 0x1018 <vfprintf+0x6f0>
     b54:	e7 fe       	sbrs	r14, 7
     b56:	0e c0       	rjmp	.+28     	; 0xb74 <vfprintf+0x24c>
     b58:	9a 0c       	add	r9, r10
     b5a:	f8 89       	ldd	r31, Y+16	; 0x10
     b5c:	f4 ff       	sbrs	r31, 4
     b5e:	04 c0       	rjmp	.+8      	; 0xb68 <vfprintf+0x240>
     b60:	8a 81       	ldd	r24, Y+2	; 0x02
     b62:	81 33       	cpi	r24, 0x31	; 49
     b64:	09 f4       	brne	.+2      	; 0xb68 <vfprintf+0x240>
     b66:	9a 94       	dec	r9
     b68:	19 14       	cp	r1, r9
     b6a:	54 f5       	brge	.+84     	; 0xbc0 <vfprintf+0x298>
     b6c:	29 2d       	mov	r18, r9
     b6e:	29 30       	cpi	r18, 0x09	; 9
     b70:	50 f5       	brcc	.+84     	; 0xbc6 <vfprintf+0x29e>
     b72:	2d c0       	rjmp	.+90     	; 0xbce <vfprintf+0x2a6>
     b74:	e6 fc       	sbrc	r14, 6
     b76:	2b c0       	rjmp	.+86     	; 0xbce <vfprintf+0x2a6>
     b78:	81 2f       	mov	r24, r17
     b7a:	90 e0       	ldi	r25, 0x00	; 0
     b7c:	8a 15       	cp	r24, r10
     b7e:	9b 05       	cpc	r25, r11
     b80:	4c f0       	brlt	.+18     	; 0xb94 <vfprintf+0x26c>
     b82:	3c ef       	ldi	r19, 0xFC	; 252
     b84:	a3 16       	cp	r10, r19
     b86:	3f ef       	ldi	r19, 0xFF	; 255
     b88:	b3 06       	cpc	r11, r19
     b8a:	24 f0       	brlt	.+8      	; 0xb94 <vfprintf+0x26c>
     b8c:	80 e8       	ldi	r24, 0x80	; 128
     b8e:	e8 2a       	or	r14, r24
     b90:	01 c0       	rjmp	.+2      	; 0xb94 <vfprintf+0x26c>
     b92:	11 50       	subi	r17, 0x01	; 1
     b94:	11 23       	and	r17, r17
     b96:	49 f0       	breq	.+18     	; 0xbaa <vfprintf+0x282>
     b98:	e2 e0       	ldi	r30, 0x02	; 2
     b9a:	f0 e0       	ldi	r31, 0x00	; 0
     b9c:	ec 0f       	add	r30, r28
     b9e:	fd 1f       	adc	r31, r29
     ba0:	e1 0f       	add	r30, r17
     ba2:	f1 1d       	adc	r31, r1
     ba4:	80 81       	ld	r24, Z
     ba6:	80 33       	cpi	r24, 0x30	; 48
     ba8:	a1 f3       	breq	.-24     	; 0xb92 <vfprintf+0x26a>
     baa:	e7 fe       	sbrs	r14, 7
     bac:	10 c0       	rjmp	.+32     	; 0xbce <vfprintf+0x2a6>
     bae:	91 2e       	mov	r9, r17
     bb0:	93 94       	inc	r9
     bb2:	81 2f       	mov	r24, r17
     bb4:	90 e0       	ldi	r25, 0x00	; 0
     bb6:	a8 16       	cp	r10, r24
     bb8:	b9 06       	cpc	r11, r25
     bba:	44 f4       	brge	.+16     	; 0xbcc <vfprintf+0x2a4>
     bbc:	1a 19       	sub	r17, r10
     bbe:	07 c0       	rjmp	.+14     	; 0xbce <vfprintf+0x2a6>
     bc0:	99 24       	eor	r9, r9
     bc2:	93 94       	inc	r9
     bc4:	04 c0       	rjmp	.+8      	; 0xbce <vfprintf+0x2a6>
     bc6:	98 e0       	ldi	r25, 0x08	; 8
     bc8:	99 2e       	mov	r9, r25
     bca:	01 c0       	rjmp	.+2      	; 0xbce <vfprintf+0x2a6>
     bcc:	10 e0       	ldi	r17, 0x00	; 0
     bce:	e7 fe       	sbrs	r14, 7
     bd0:	07 c0       	rjmp	.+14     	; 0xbe0 <vfprintf+0x2b8>
     bd2:	1a 14       	cp	r1, r10
     bd4:	1b 04       	cpc	r1, r11
     bd6:	3c f4       	brge	.+14     	; 0xbe6 <vfprintf+0x2be>
     bd8:	95 01       	movw	r18, r10
     bda:	2f 5f       	subi	r18, 0xFF	; 255
     bdc:	3f 4f       	sbci	r19, 0xFF	; 255
     bde:	05 c0       	rjmp	.+10     	; 0xbea <vfprintf+0x2c2>
     be0:	25 e0       	ldi	r18, 0x05	; 5
     be2:	30 e0       	ldi	r19, 0x00	; 0
     be4:	02 c0       	rjmp	.+4      	; 0xbea <vfprintf+0x2c2>
     be6:	21 e0       	ldi	r18, 0x01	; 1
     be8:	30 e0       	ldi	r19, 0x00	; 0
     bea:	00 23       	and	r16, r16
     bec:	11 f0       	breq	.+4      	; 0xbf2 <vfprintf+0x2ca>
     bee:	2f 5f       	subi	r18, 0xFF	; 255
     bf0:	3f 4f       	sbci	r19, 0xFF	; 255
     bf2:	11 23       	and	r17, r17
     bf4:	29 f0       	breq	.+10     	; 0xc00 <vfprintf+0x2d8>
     bf6:	81 2f       	mov	r24, r17
     bf8:	90 e0       	ldi	r25, 0x00	; 0
     bfa:	01 96       	adiw	r24, 0x01	; 1
     bfc:	28 0f       	add	r18, r24
     bfe:	39 1f       	adc	r19, r25
     c00:	8f 2d       	mov	r24, r15
     c02:	90 e0       	ldi	r25, 0x00	; 0
     c04:	28 17       	cp	r18, r24
     c06:	39 07       	cpc	r19, r25
     c08:	14 f4       	brge	.+4      	; 0xc0e <vfprintf+0x2e6>
     c0a:	f2 1a       	sub	r15, r18
     c0c:	01 c0       	rjmp	.+2      	; 0xc10 <vfprintf+0x2e8>
     c0e:	ff 24       	eor	r15, r15
     c10:	4e 2c       	mov	r4, r14
     c12:	55 24       	eor	r5, r5
     c14:	c2 01       	movw	r24, r4
     c16:	89 70       	andi	r24, 0x09	; 9
     c18:	90 70       	andi	r25, 0x00	; 0
     c1a:	00 97       	sbiw	r24, 0x00	; 0
     c1c:	49 f4       	brne	.+18     	; 0xc30 <vfprintf+0x308>
     c1e:	06 c0       	rjmp	.+12     	; 0xc2c <vfprintf+0x304>
     c20:	80 e2       	ldi	r24, 0x20	; 32
     c22:	90 e0       	ldi	r25, 0x00	; 0
     c24:	b6 01       	movw	r22, r12
     c26:	0e 94 8e 0b 	call	0x171c	; 0x171c <fputc>
     c2a:	fa 94       	dec	r15
     c2c:	ff 20       	and	r15, r15
     c2e:	c1 f7       	brne	.-16     	; 0xc20 <vfprintf+0x2f8>
     c30:	00 23       	and	r16, r16
     c32:	29 f0       	breq	.+10     	; 0xc3e <vfprintf+0x316>
     c34:	80 2f       	mov	r24, r16
     c36:	90 e0       	ldi	r25, 0x00	; 0
     c38:	b6 01       	movw	r22, r12
     c3a:	0e 94 8e 0b 	call	0x171c	; 0x171c <fputc>
     c3e:	43 fc       	sbrc	r4, 3
     c40:	09 c0       	rjmp	.+18     	; 0xc54 <vfprintf+0x32c>
     c42:	06 c0       	rjmp	.+12     	; 0xc50 <vfprintf+0x328>
     c44:	80 e3       	ldi	r24, 0x30	; 48
     c46:	90 e0       	ldi	r25, 0x00	; 0
     c48:	b6 01       	movw	r22, r12
     c4a:	0e 94 8e 0b 	call	0x171c	; 0x171c <fputc>
     c4e:	fa 94       	dec	r15
     c50:	ff 20       	and	r15, r15
     c52:	c1 f7       	brne	.-16     	; 0xc44 <vfprintf+0x31c>
     c54:	e7 fe       	sbrs	r14, 7
     c56:	46 c0       	rjmp	.+140    	; 0xce4 <vfprintf+0x3bc>
     c58:	35 01       	movw	r6, r10
     c5a:	b7 fe       	sbrs	r11, 7
     c5c:	02 c0       	rjmp	.+4      	; 0xc62 <vfprintf+0x33a>
     c5e:	66 24       	eor	r6, r6
     c60:	77 24       	eor	r7, r7
     c62:	25 01       	movw	r4, r10
     c64:	08 94       	sec
     c66:	41 1c       	adc	r4, r1
     c68:	51 1c       	adc	r5, r1
     c6a:	46 18       	sub	r4, r6
     c6c:	57 08       	sbc	r5, r7
     c6e:	42 0c       	add	r4, r2
     c70:	53 1c       	adc	r5, r3
     c72:	f5 01       	movw	r30, r10
     c74:	e9 19       	sub	r30, r9
     c76:	f1 09       	sbc	r31, r1
     c78:	4f 01       	movw	r8, r30
     c7a:	81 2f       	mov	r24, r17
     c7c:	90 e0       	ldi	r25, 0x00	; 0
     c7e:	00 27       	eor	r16, r16
     c80:	11 27       	eor	r17, r17
     c82:	08 1b       	sub	r16, r24
     c84:	19 0b       	sbc	r17, r25
     c86:	ff ef       	ldi	r31, 0xFF	; 255
     c88:	6f 16       	cp	r6, r31
     c8a:	ff ef       	ldi	r31, 0xFF	; 255
     c8c:	7f 06       	cpc	r7, r31
     c8e:	29 f4       	brne	.+10     	; 0xc9a <vfprintf+0x372>
     c90:	8e e2       	ldi	r24, 0x2E	; 46
     c92:	90 e0       	ldi	r25, 0x00	; 0
     c94:	b6 01       	movw	r22, r12
     c96:	0e 94 8e 0b 	call	0x171c	; 0x171c <fputc>
     c9a:	a6 14       	cp	r10, r6
     c9c:	b7 04       	cpc	r11, r7
     c9e:	34 f0       	brlt	.+12     	; 0xcac <vfprintf+0x384>
     ca0:	86 14       	cp	r8, r6
     ca2:	97 04       	cpc	r9, r7
     ca4:	1c f4       	brge	.+6      	; 0xcac <vfprintf+0x384>
     ca6:	f2 01       	movw	r30, r4
     ca8:	80 81       	ld	r24, Z
     caa:	01 c0       	rjmp	.+2      	; 0xcae <vfprintf+0x386>
     cac:	80 e3       	ldi	r24, 0x30	; 48
     cae:	08 94       	sec
     cb0:	61 08       	sbc	r6, r1
     cb2:	71 08       	sbc	r7, r1
     cb4:	08 94       	sec
     cb6:	41 1c       	adc	r4, r1
     cb8:	51 1c       	adc	r5, r1
     cba:	60 16       	cp	r6, r16
     cbc:	71 06       	cpc	r7, r17
     cbe:	2c f0       	brlt	.+10     	; 0xcca <vfprintf+0x3a2>
     cc0:	90 e0       	ldi	r25, 0x00	; 0
     cc2:	b6 01       	movw	r22, r12
     cc4:	0e 94 8e 0b 	call	0x171c	; 0x171c <fputc>
     cc8:	de cf       	rjmp	.-68     	; 0xc86 <vfprintf+0x35e>
     cca:	6a 14       	cp	r6, r10
     ccc:	7b 04       	cpc	r7, r11
     cce:	41 f4       	brne	.+16     	; 0xce0 <vfprintf+0x3b8>
     cd0:	9a 81       	ldd	r25, Y+2	; 0x02
     cd2:	96 33       	cpi	r25, 0x36	; 54
     cd4:	20 f4       	brcc	.+8      	; 0xcde <vfprintf+0x3b6>
     cd6:	95 33       	cpi	r25, 0x35	; 53
     cd8:	19 f4       	brne	.+6      	; 0xce0 <vfprintf+0x3b8>
     cda:	f8 89       	ldd	r31, Y+16	; 0x10
     cdc:	f4 ff       	sbrs	r31, 4
     cde:	81 e3       	ldi	r24, 0x31	; 49
     ce0:	90 e0       	ldi	r25, 0x00	; 0
     ce2:	49 c0       	rjmp	.+146    	; 0xd76 <vfprintf+0x44e>
     ce4:	8a 81       	ldd	r24, Y+2	; 0x02
     ce6:	81 33       	cpi	r24, 0x31	; 49
     ce8:	11 f0       	breq	.+4      	; 0xcee <vfprintf+0x3c6>
     cea:	2f ee       	ldi	r18, 0xEF	; 239
     cec:	62 22       	and	r6, r18
     cee:	90 e0       	ldi	r25, 0x00	; 0
     cf0:	b6 01       	movw	r22, r12
     cf2:	0e 94 8e 0b 	call	0x171c	; 0x171c <fputc>
     cf6:	11 23       	and	r17, r17
     cf8:	89 f0       	breq	.+34     	; 0xd1c <vfprintf+0x3f4>
     cfa:	8e e2       	ldi	r24, 0x2E	; 46
     cfc:	90 e0       	ldi	r25, 0x00	; 0
     cfe:	b6 01       	movw	r22, r12
     d00:	0e 94 8e 0b 	call	0x171c	; 0x171c <fputc>
     d04:	02 e0       	ldi	r16, 0x02	; 2
     d06:	f1 01       	movw	r30, r2
     d08:	e0 0f       	add	r30, r16
     d0a:	f1 1d       	adc	r31, r1
     d0c:	0f 5f       	subi	r16, 0xFF	; 255
     d0e:	80 81       	ld	r24, Z
     d10:	90 e0       	ldi	r25, 0x00	; 0
     d12:	b6 01       	movw	r22, r12
     d14:	0e 94 8e 0b 	call	0x171c	; 0x171c <fputc>
     d18:	11 50       	subi	r17, 0x01	; 1
     d1a:	a9 f7       	brne	.-22     	; 0xd06 <vfprintf+0x3de>
     d1c:	44 fe       	sbrs	r4, 4
     d1e:	03 c0       	rjmp	.+6      	; 0xd26 <vfprintf+0x3fe>
     d20:	85 e4       	ldi	r24, 0x45	; 69
     d22:	90 e0       	ldi	r25, 0x00	; 0
     d24:	02 c0       	rjmp	.+4      	; 0xd2a <vfprintf+0x402>
     d26:	85 e6       	ldi	r24, 0x65	; 101
     d28:	90 e0       	ldi	r25, 0x00	; 0
     d2a:	b6 01       	movw	r22, r12
     d2c:	0e 94 8e 0b 	call	0x171c	; 0x171c <fputc>
     d30:	b7 fc       	sbrc	r11, 7
     d32:	05 c0       	rjmp	.+10     	; 0xd3e <vfprintf+0x416>
     d34:	a1 14       	cp	r10, r1
     d36:	b1 04       	cpc	r11, r1
     d38:	41 f4       	brne	.+16     	; 0xd4a <vfprintf+0x422>
     d3a:	64 fe       	sbrs	r6, 4
     d3c:	06 c0       	rjmp	.+12     	; 0xd4a <vfprintf+0x422>
     d3e:	b0 94       	com	r11
     d40:	a1 94       	neg	r10
     d42:	b1 08       	sbc	r11, r1
     d44:	b3 94       	inc	r11
     d46:	8d e2       	ldi	r24, 0x2D	; 45
     d48:	01 c0       	rjmp	.+2      	; 0xd4c <vfprintf+0x424>
     d4a:	8b e2       	ldi	r24, 0x2B	; 43
     d4c:	90 e0       	ldi	r25, 0x00	; 0
     d4e:	b6 01       	movw	r22, r12
     d50:	0e 94 8e 0b 	call	0x171c	; 0x171c <fputc>
     d54:	80 e3       	ldi	r24, 0x30	; 48
     d56:	05 c0       	rjmp	.+10     	; 0xd62 <vfprintf+0x43a>
     d58:	8f 5f       	subi	r24, 0xFF	; 255
     d5a:	e6 ef       	ldi	r30, 0xF6	; 246
     d5c:	ff ef       	ldi	r31, 0xFF	; 255
     d5e:	ae 0e       	add	r10, r30
     d60:	bf 1e       	adc	r11, r31
     d62:	fa e0       	ldi	r31, 0x0A	; 10
     d64:	af 16       	cp	r10, r31
     d66:	b1 04       	cpc	r11, r1
     d68:	bc f7       	brge	.-18     	; 0xd58 <vfprintf+0x430>
     d6a:	90 e0       	ldi	r25, 0x00	; 0
     d6c:	b6 01       	movw	r22, r12
     d6e:	0e 94 8e 0b 	call	0x171c	; 0x171c <fputc>
     d72:	c5 01       	movw	r24, r10
     d74:	c0 96       	adiw	r24, 0x30	; 48
     d76:	b6 01       	movw	r22, r12
     d78:	0e 94 8e 0b 	call	0x171c	; 0x171c <fputc>
     d7c:	4d c1       	rjmp	.+666    	; 0x1018 <vfprintf+0x6f0>
     d7e:	83 36       	cpi	r24, 0x63	; 99
     d80:	31 f0       	breq	.+12     	; 0xd8e <vfprintf+0x466>
     d82:	83 37       	cpi	r24, 0x73	; 115
     d84:	89 f0       	breq	.+34     	; 0xda8 <vfprintf+0x480>
     d86:	83 35       	cpi	r24, 0x53	; 83
     d88:	09 f0       	breq	.+2      	; 0xd8c <vfprintf+0x464>
     d8a:	59 c0       	rjmp	.+178    	; 0xe3e <vfprintf+0x516>
     d8c:	22 c0       	rjmp	.+68     	; 0xdd2 <vfprintf+0x4aa>
     d8e:	9a 01       	movw	r18, r20
     d90:	2e 5f       	subi	r18, 0xFE	; 254
     d92:	3f 4f       	sbci	r19, 0xFF	; 255
     d94:	3d 87       	std	Y+13, r19	; 0x0d
     d96:	2c 87       	std	Y+12, r18	; 0x0c
     d98:	fa 01       	movw	r30, r20
     d9a:	80 81       	ld	r24, Z
     d9c:	89 83       	std	Y+1, r24	; 0x01
     d9e:	31 01       	movw	r6, r2
     da0:	81 e0       	ldi	r24, 0x01	; 1
     da2:	a8 2e       	mov	r10, r24
     da4:	b1 2c       	mov	r11, r1
     da6:	13 c0       	rjmp	.+38     	; 0xdce <vfprintf+0x4a6>
     da8:	9a 01       	movw	r18, r20
     daa:	2e 5f       	subi	r18, 0xFE	; 254
     dac:	3f 4f       	sbci	r19, 0xFF	; 255
     dae:	3d 87       	std	Y+13, r19	; 0x0d
     db0:	2c 87       	std	Y+12, r18	; 0x0c
     db2:	fa 01       	movw	r30, r20
     db4:	60 80       	ld	r6, Z
     db6:	71 80       	ldd	r7, Z+1	; 0x01
     db8:	06 ff       	sbrs	r16, 6
     dba:	03 c0       	rjmp	.+6      	; 0xdc2 <vfprintf+0x49a>
     dbc:	61 2f       	mov	r22, r17
     dbe:	70 e0       	ldi	r23, 0x00	; 0
     dc0:	02 c0       	rjmp	.+4      	; 0xdc6 <vfprintf+0x49e>
     dc2:	6f ef       	ldi	r22, 0xFF	; 255
     dc4:	7f ef       	ldi	r23, 0xFF	; 255
     dc6:	c3 01       	movw	r24, r6
     dc8:	0e 94 4f 0b 	call	0x169e	; 0x169e <strnlen>
     dcc:	5c 01       	movw	r10, r24
     dce:	0f 77       	andi	r16, 0x7F	; 127
     dd0:	14 c0       	rjmp	.+40     	; 0xdfa <vfprintf+0x4d2>
     dd2:	9a 01       	movw	r18, r20
     dd4:	2e 5f       	subi	r18, 0xFE	; 254
     dd6:	3f 4f       	sbci	r19, 0xFF	; 255
     dd8:	3d 87       	std	Y+13, r19	; 0x0d
     dda:	2c 87       	std	Y+12, r18	; 0x0c
     ddc:	fa 01       	movw	r30, r20
     dde:	60 80       	ld	r6, Z
     de0:	71 80       	ldd	r7, Z+1	; 0x01
     de2:	06 ff       	sbrs	r16, 6
     de4:	03 c0       	rjmp	.+6      	; 0xdec <vfprintf+0x4c4>
     de6:	61 2f       	mov	r22, r17
     de8:	70 e0       	ldi	r23, 0x00	; 0
     dea:	02 c0       	rjmp	.+4      	; 0xdf0 <vfprintf+0x4c8>
     dec:	6f ef       	ldi	r22, 0xFF	; 255
     dee:	7f ef       	ldi	r23, 0xFF	; 255
     df0:	c3 01       	movw	r24, r6
     df2:	0e 94 44 0b 	call	0x1688	; 0x1688 <strnlen_P>
     df6:	5c 01       	movw	r10, r24
     df8:	00 68       	ori	r16, 0x80	; 128
     dfa:	03 fd       	sbrc	r16, 3
     dfc:	1c c0       	rjmp	.+56     	; 0xe36 <vfprintf+0x50e>
     dfe:	06 c0       	rjmp	.+12     	; 0xe0c <vfprintf+0x4e4>
     e00:	80 e2       	ldi	r24, 0x20	; 32
     e02:	90 e0       	ldi	r25, 0x00	; 0
     e04:	b6 01       	movw	r22, r12
     e06:	0e 94 8e 0b 	call	0x171c	; 0x171c <fputc>
     e0a:	fa 94       	dec	r15
     e0c:	8f 2d       	mov	r24, r15
     e0e:	90 e0       	ldi	r25, 0x00	; 0
     e10:	a8 16       	cp	r10, r24
     e12:	b9 06       	cpc	r11, r25
     e14:	a8 f3       	brcs	.-22     	; 0xe00 <vfprintf+0x4d8>
     e16:	0f c0       	rjmp	.+30     	; 0xe36 <vfprintf+0x50e>
     e18:	f3 01       	movw	r30, r6
     e1a:	07 fd       	sbrc	r16, 7
     e1c:	85 91       	lpm	r24, Z+
     e1e:	07 ff       	sbrs	r16, 7
     e20:	81 91       	ld	r24, Z+
     e22:	3f 01       	movw	r6, r30
     e24:	90 e0       	ldi	r25, 0x00	; 0
     e26:	b6 01       	movw	r22, r12
     e28:	0e 94 8e 0b 	call	0x171c	; 0x171c <fputc>
     e2c:	f1 10       	cpse	r15, r1
     e2e:	fa 94       	dec	r15
     e30:	08 94       	sec
     e32:	a1 08       	sbc	r10, r1
     e34:	b1 08       	sbc	r11, r1
     e36:	a1 14       	cp	r10, r1
     e38:	b1 04       	cpc	r11, r1
     e3a:	71 f7       	brne	.-36     	; 0xe18 <vfprintf+0x4f0>
     e3c:	ed c0       	rjmp	.+474    	; 0x1018 <vfprintf+0x6f0>
     e3e:	84 36       	cpi	r24, 0x64	; 100
     e40:	11 f0       	breq	.+4      	; 0xe46 <vfprintf+0x51e>
     e42:	89 36       	cpi	r24, 0x69	; 105
     e44:	61 f5       	brne	.+88     	; 0xe9e <vfprintf+0x576>
     e46:	07 ff       	sbrs	r16, 7
     e48:	0b c0       	rjmp	.+22     	; 0xe60 <vfprintf+0x538>
     e4a:	9a 01       	movw	r18, r20
     e4c:	2c 5f       	subi	r18, 0xFC	; 252
     e4e:	3f 4f       	sbci	r19, 0xFF	; 255
     e50:	3d 87       	std	Y+13, r19	; 0x0d
     e52:	2c 87       	std	Y+12, r18	; 0x0c
     e54:	fa 01       	movw	r30, r20
     e56:	60 81       	ld	r22, Z
     e58:	71 81       	ldd	r23, Z+1	; 0x01
     e5a:	82 81       	ldd	r24, Z+2	; 0x02
     e5c:	93 81       	ldd	r25, Z+3	; 0x03
     e5e:	0c c0       	rjmp	.+24     	; 0xe78 <vfprintf+0x550>
     e60:	9a 01       	movw	r18, r20
     e62:	2e 5f       	subi	r18, 0xFE	; 254
     e64:	3f 4f       	sbci	r19, 0xFF	; 255
     e66:	3d 87       	std	Y+13, r19	; 0x0d
     e68:	2c 87       	std	Y+12, r18	; 0x0c
     e6a:	fa 01       	movw	r30, r20
     e6c:	60 81       	ld	r22, Z
     e6e:	71 81       	ldd	r23, Z+1	; 0x01
     e70:	88 27       	eor	r24, r24
     e72:	77 fd       	sbrc	r23, 7
     e74:	80 95       	com	r24
     e76:	98 2f       	mov	r25, r24
     e78:	0f 76       	andi	r16, 0x6F	; 111
     e7a:	97 ff       	sbrs	r25, 7
     e7c:	08 c0       	rjmp	.+16     	; 0xe8e <vfprintf+0x566>
     e7e:	90 95       	com	r25
     e80:	80 95       	com	r24
     e82:	70 95       	com	r23
     e84:	61 95       	neg	r22
     e86:	7f 4f       	sbci	r23, 0xFF	; 255
     e88:	8f 4f       	sbci	r24, 0xFF	; 255
     e8a:	9f 4f       	sbci	r25, 0xFF	; 255
     e8c:	00 68       	ori	r16, 0x80	; 128
     e8e:	a1 01       	movw	r20, r2
     e90:	2a e0       	ldi	r18, 0x0A	; 10
     e92:	30 e0       	ldi	r19, 0x00	; 0
     e94:	0e 94 ba 0b 	call	0x1774	; 0x1774 <__ultoa_invert>
     e98:	98 2e       	mov	r9, r24
     e9a:	92 18       	sub	r9, r2
     e9c:	41 c0       	rjmp	.+130    	; 0xf20 <vfprintf+0x5f8>
     e9e:	85 37       	cpi	r24, 0x75	; 117
     ea0:	21 f4       	brne	.+8      	; 0xeaa <vfprintf+0x582>
     ea2:	0f 7e       	andi	r16, 0xEF	; 239
     ea4:	2a e0       	ldi	r18, 0x0A	; 10
     ea6:	30 e0       	ldi	r19, 0x00	; 0
     ea8:	20 c0       	rjmp	.+64     	; 0xeea <vfprintf+0x5c2>
     eaa:	09 7f       	andi	r16, 0xF9	; 249
     eac:	8f 36       	cpi	r24, 0x6F	; 111
     eae:	a9 f0       	breq	.+42     	; 0xeda <vfprintf+0x5b2>
     eb0:	80 37       	cpi	r24, 0x70	; 112
     eb2:	20 f4       	brcc	.+8      	; 0xebc <vfprintf+0x594>
     eb4:	88 35       	cpi	r24, 0x58	; 88
     eb6:	09 f0       	breq	.+2      	; 0xeba <vfprintf+0x592>
     eb8:	b2 c0       	rjmp	.+356    	; 0x101e <vfprintf+0x6f6>
     eba:	0b c0       	rjmp	.+22     	; 0xed2 <vfprintf+0x5aa>
     ebc:	80 37       	cpi	r24, 0x70	; 112
     ebe:	21 f0       	breq	.+8      	; 0xec8 <vfprintf+0x5a0>
     ec0:	88 37       	cpi	r24, 0x78	; 120
     ec2:	09 f0       	breq	.+2      	; 0xec6 <vfprintf+0x59e>
     ec4:	ac c0       	rjmp	.+344    	; 0x101e <vfprintf+0x6f6>
     ec6:	01 c0       	rjmp	.+2      	; 0xeca <vfprintf+0x5a2>
     ec8:	00 61       	ori	r16, 0x10	; 16
     eca:	04 ff       	sbrs	r16, 4
     ecc:	09 c0       	rjmp	.+18     	; 0xee0 <vfprintf+0x5b8>
     ece:	04 60       	ori	r16, 0x04	; 4
     ed0:	07 c0       	rjmp	.+14     	; 0xee0 <vfprintf+0x5b8>
     ed2:	04 ff       	sbrs	r16, 4
     ed4:	08 c0       	rjmp	.+16     	; 0xee6 <vfprintf+0x5be>
     ed6:	06 60       	ori	r16, 0x06	; 6
     ed8:	06 c0       	rjmp	.+12     	; 0xee6 <vfprintf+0x5be>
     eda:	28 e0       	ldi	r18, 0x08	; 8
     edc:	30 e0       	ldi	r19, 0x00	; 0
     ede:	05 c0       	rjmp	.+10     	; 0xeea <vfprintf+0x5c2>
     ee0:	20 e1       	ldi	r18, 0x10	; 16
     ee2:	30 e0       	ldi	r19, 0x00	; 0
     ee4:	02 c0       	rjmp	.+4      	; 0xeea <vfprintf+0x5c2>
     ee6:	20 e1       	ldi	r18, 0x10	; 16
     ee8:	32 e0       	ldi	r19, 0x02	; 2
     eea:	07 ff       	sbrs	r16, 7
     eec:	0a c0       	rjmp	.+20     	; 0xf02 <vfprintf+0x5da>
     eee:	ca 01       	movw	r24, r20
     ef0:	04 96       	adiw	r24, 0x04	; 4
     ef2:	9d 87       	std	Y+13, r25	; 0x0d
     ef4:	8c 87       	std	Y+12, r24	; 0x0c
     ef6:	fa 01       	movw	r30, r20
     ef8:	60 81       	ld	r22, Z
     efa:	71 81       	ldd	r23, Z+1	; 0x01
     efc:	82 81       	ldd	r24, Z+2	; 0x02
     efe:	93 81       	ldd	r25, Z+3	; 0x03
     f00:	09 c0       	rjmp	.+18     	; 0xf14 <vfprintf+0x5ec>
     f02:	ca 01       	movw	r24, r20
     f04:	02 96       	adiw	r24, 0x02	; 2
     f06:	9d 87       	std	Y+13, r25	; 0x0d
     f08:	8c 87       	std	Y+12, r24	; 0x0c
     f0a:	fa 01       	movw	r30, r20
     f0c:	60 81       	ld	r22, Z
     f0e:	71 81       	ldd	r23, Z+1	; 0x01
     f10:	80 e0       	ldi	r24, 0x00	; 0
     f12:	90 e0       	ldi	r25, 0x00	; 0
     f14:	a1 01       	movw	r20, r2
     f16:	0e 94 ba 0b 	call	0x1774	; 0x1774 <__ultoa_invert>
     f1a:	98 2e       	mov	r9, r24
     f1c:	92 18       	sub	r9, r2
     f1e:	0f 77       	andi	r16, 0x7F	; 127
     f20:	06 ff       	sbrs	r16, 6
     f22:	09 c0       	rjmp	.+18     	; 0xf36 <vfprintf+0x60e>
     f24:	0e 7f       	andi	r16, 0xFE	; 254
     f26:	91 16       	cp	r9, r17
     f28:	30 f4       	brcc	.+12     	; 0xf36 <vfprintf+0x60e>
     f2a:	04 ff       	sbrs	r16, 4
     f2c:	06 c0       	rjmp	.+12     	; 0xf3a <vfprintf+0x612>
     f2e:	02 fd       	sbrc	r16, 2
     f30:	04 c0       	rjmp	.+8      	; 0xf3a <vfprintf+0x612>
     f32:	0f 7e       	andi	r16, 0xEF	; 239
     f34:	02 c0       	rjmp	.+4      	; 0xf3a <vfprintf+0x612>
     f36:	e9 2c       	mov	r14, r9
     f38:	01 c0       	rjmp	.+2      	; 0xf3c <vfprintf+0x614>
     f3a:	e1 2e       	mov	r14, r17
     f3c:	80 2f       	mov	r24, r16
     f3e:	90 e0       	ldi	r25, 0x00	; 0
     f40:	04 ff       	sbrs	r16, 4
     f42:	0c c0       	rjmp	.+24     	; 0xf5c <vfprintf+0x634>
     f44:	fe 01       	movw	r30, r28
     f46:	e9 0d       	add	r30, r9
     f48:	f1 1d       	adc	r31, r1
     f4a:	20 81       	ld	r18, Z
     f4c:	20 33       	cpi	r18, 0x30	; 48
     f4e:	11 f4       	brne	.+4      	; 0xf54 <vfprintf+0x62c>
     f50:	09 7e       	andi	r16, 0xE9	; 233
     f52:	09 c0       	rjmp	.+18     	; 0xf66 <vfprintf+0x63e>
     f54:	e3 94       	inc	r14
     f56:	02 ff       	sbrs	r16, 2
     f58:	06 c0       	rjmp	.+12     	; 0xf66 <vfprintf+0x63e>
     f5a:	04 c0       	rjmp	.+8      	; 0xf64 <vfprintf+0x63c>
     f5c:	86 78       	andi	r24, 0x86	; 134
     f5e:	90 70       	andi	r25, 0x00	; 0
     f60:	00 97       	sbiw	r24, 0x00	; 0
     f62:	09 f0       	breq	.+2      	; 0xf66 <vfprintf+0x63e>
     f64:	e3 94       	inc	r14
     f66:	a0 2e       	mov	r10, r16
     f68:	bb 24       	eor	r11, r11
     f6a:	03 fd       	sbrc	r16, 3
     f6c:	14 c0       	rjmp	.+40     	; 0xf96 <vfprintf+0x66e>
     f6e:	00 ff       	sbrs	r16, 0
     f70:	0f c0       	rjmp	.+30     	; 0xf90 <vfprintf+0x668>
     f72:	ef 14       	cp	r14, r15
     f74:	28 f4       	brcc	.+10     	; 0xf80 <vfprintf+0x658>
     f76:	19 2d       	mov	r17, r9
     f78:	1f 0d       	add	r17, r15
     f7a:	1e 19       	sub	r17, r14
     f7c:	ef 2c       	mov	r14, r15
     f7e:	08 c0       	rjmp	.+16     	; 0xf90 <vfprintf+0x668>
     f80:	19 2d       	mov	r17, r9
     f82:	06 c0       	rjmp	.+12     	; 0xf90 <vfprintf+0x668>
     f84:	80 e2       	ldi	r24, 0x20	; 32
     f86:	90 e0       	ldi	r25, 0x00	; 0
     f88:	b6 01       	movw	r22, r12
     f8a:	0e 94 8e 0b 	call	0x171c	; 0x171c <fputc>
     f8e:	e3 94       	inc	r14
     f90:	ef 14       	cp	r14, r15
     f92:	c0 f3       	brcs	.-16     	; 0xf84 <vfprintf+0x65c>
     f94:	04 c0       	rjmp	.+8      	; 0xf9e <vfprintf+0x676>
     f96:	ef 14       	cp	r14, r15
     f98:	10 f4       	brcc	.+4      	; 0xf9e <vfprintf+0x676>
     f9a:	fe 18       	sub	r15, r14
     f9c:	01 c0       	rjmp	.+2      	; 0xfa0 <vfprintf+0x678>
     f9e:	ff 24       	eor	r15, r15
     fa0:	a4 fe       	sbrs	r10, 4
     fa2:	0f c0       	rjmp	.+30     	; 0xfc2 <vfprintf+0x69a>
     fa4:	80 e3       	ldi	r24, 0x30	; 48
     fa6:	90 e0       	ldi	r25, 0x00	; 0
     fa8:	b6 01       	movw	r22, r12
     faa:	0e 94 8e 0b 	call	0x171c	; 0x171c <fputc>
     fae:	a2 fe       	sbrs	r10, 2
     fb0:	1f c0       	rjmp	.+62     	; 0xff0 <vfprintf+0x6c8>
     fb2:	a1 fe       	sbrs	r10, 1
     fb4:	03 c0       	rjmp	.+6      	; 0xfbc <vfprintf+0x694>
     fb6:	88 e5       	ldi	r24, 0x58	; 88
     fb8:	90 e0       	ldi	r25, 0x00	; 0
     fba:	10 c0       	rjmp	.+32     	; 0xfdc <vfprintf+0x6b4>
     fbc:	88 e7       	ldi	r24, 0x78	; 120
     fbe:	90 e0       	ldi	r25, 0x00	; 0
     fc0:	0d c0       	rjmp	.+26     	; 0xfdc <vfprintf+0x6b4>
     fc2:	c5 01       	movw	r24, r10
     fc4:	86 78       	andi	r24, 0x86	; 134
     fc6:	90 70       	andi	r25, 0x00	; 0
     fc8:	00 97       	sbiw	r24, 0x00	; 0
     fca:	91 f0       	breq	.+36     	; 0xff0 <vfprintf+0x6c8>
     fcc:	a1 fc       	sbrc	r10, 1
     fce:	02 c0       	rjmp	.+4      	; 0xfd4 <vfprintf+0x6ac>
     fd0:	80 e2       	ldi	r24, 0x20	; 32
     fd2:	01 c0       	rjmp	.+2      	; 0xfd6 <vfprintf+0x6ae>
     fd4:	8b e2       	ldi	r24, 0x2B	; 43
     fd6:	07 fd       	sbrc	r16, 7
     fd8:	8d e2       	ldi	r24, 0x2D	; 45
     fda:	90 e0       	ldi	r25, 0x00	; 0
     fdc:	b6 01       	movw	r22, r12
     fde:	0e 94 8e 0b 	call	0x171c	; 0x171c <fputc>
     fe2:	06 c0       	rjmp	.+12     	; 0xff0 <vfprintf+0x6c8>
     fe4:	80 e3       	ldi	r24, 0x30	; 48
     fe6:	90 e0       	ldi	r25, 0x00	; 0
     fe8:	b6 01       	movw	r22, r12
     fea:	0e 94 8e 0b 	call	0x171c	; 0x171c <fputc>
     fee:	11 50       	subi	r17, 0x01	; 1
     ff0:	91 16       	cp	r9, r17
     ff2:	c0 f3       	brcs	.-16     	; 0xfe4 <vfprintf+0x6bc>
     ff4:	9a 94       	dec	r9
     ff6:	f1 01       	movw	r30, r2
     ff8:	e9 0d       	add	r30, r9
     ffa:	f1 1d       	adc	r31, r1
     ffc:	80 81       	ld	r24, Z
     ffe:	90 e0       	ldi	r25, 0x00	; 0
    1000:	b6 01       	movw	r22, r12
    1002:	0e 94 8e 0b 	call	0x171c	; 0x171c <fputc>
    1006:	99 20       	and	r9, r9
    1008:	a9 f7       	brne	.-22     	; 0xff4 <vfprintf+0x6cc>
    100a:	06 c0       	rjmp	.+12     	; 0x1018 <vfprintf+0x6f0>
    100c:	80 e2       	ldi	r24, 0x20	; 32
    100e:	90 e0       	ldi	r25, 0x00	; 0
    1010:	b6 01       	movw	r22, r12
    1012:	0e 94 8e 0b 	call	0x171c	; 0x171c <fputc>
    1016:	fa 94       	dec	r15
    1018:	ff 20       	and	r15, r15
    101a:	c1 f7       	brne	.-16     	; 0x100c <vfprintf+0x6e4>
    101c:	95 cc       	rjmp	.-1750   	; 0x948 <vfprintf+0x20>
    101e:	f6 01       	movw	r30, r12
    1020:	26 81       	ldd	r18, Z+6	; 0x06
    1022:	37 81       	ldd	r19, Z+7	; 0x07
    1024:	02 c0       	rjmp	.+4      	; 0x102a <vfprintf+0x702>
    1026:	2f ef       	ldi	r18, 0xFF	; 255
    1028:	3f ef       	ldi	r19, 0xFF	; 255
    102a:	c9 01       	movw	r24, r18
    102c:	63 96       	adiw	r28, 0x13	; 19
    102e:	e2 e1       	ldi	r30, 0x12	; 18
    1030:	0c 94 51 0a 	jmp	0x14a2	; 0x14a2 <__epilogue_restores__>

00001034 <__subsf3>:
    1034:	50 58       	subi	r21, 0x80	; 128

00001036 <__addsf3>:
    1036:	bb 27       	eor	r27, r27
    1038:	aa 27       	eor	r26, r26
    103a:	0e d0       	rcall	.+28     	; 0x1058 <__addsf3x>
    103c:	75 c1       	rjmp	.+746    	; 0x1328 <__fp_round>
    103e:	66 d1       	rcall	.+716    	; 0x130c <__fp_pscA>
    1040:	30 f0       	brcs	.+12     	; 0x104e <__addsf3+0x18>
    1042:	6b d1       	rcall	.+726    	; 0x131a <__fp_pscB>
    1044:	20 f0       	brcs	.+8      	; 0x104e <__addsf3+0x18>
    1046:	31 f4       	brne	.+12     	; 0x1054 <__addsf3+0x1e>
    1048:	9f 3f       	cpi	r25, 0xFF	; 255
    104a:	11 f4       	brne	.+4      	; 0x1050 <__addsf3+0x1a>
    104c:	1e f4       	brtc	.+6      	; 0x1054 <__addsf3+0x1e>
    104e:	5b c1       	rjmp	.+694    	; 0x1306 <__fp_nan>
    1050:	0e f4       	brtc	.+2      	; 0x1054 <__addsf3+0x1e>
    1052:	e0 95       	com	r30
    1054:	e7 fb       	bst	r30, 7
    1056:	51 c1       	rjmp	.+674    	; 0x12fa <__fp_inf>

00001058 <__addsf3x>:
    1058:	e9 2f       	mov	r30, r25
    105a:	77 d1       	rcall	.+750    	; 0x134a <__fp_split3>
    105c:	80 f3       	brcs	.-32     	; 0x103e <__addsf3+0x8>
    105e:	ba 17       	cp	r27, r26
    1060:	62 07       	cpc	r22, r18
    1062:	73 07       	cpc	r23, r19
    1064:	84 07       	cpc	r24, r20
    1066:	95 07       	cpc	r25, r21
    1068:	18 f0       	brcs	.+6      	; 0x1070 <__addsf3x+0x18>
    106a:	71 f4       	brne	.+28     	; 0x1088 <__addsf3x+0x30>
    106c:	9e f5       	brtc	.+102    	; 0x10d4 <__addsf3x+0x7c>
    106e:	8f c1       	rjmp	.+798    	; 0x138e <__fp_zero>
    1070:	0e f4       	brtc	.+2      	; 0x1074 <__addsf3x+0x1c>
    1072:	e0 95       	com	r30
    1074:	0b 2e       	mov	r0, r27
    1076:	ba 2f       	mov	r27, r26
    1078:	a0 2d       	mov	r26, r0
    107a:	0b 01       	movw	r0, r22
    107c:	b9 01       	movw	r22, r18
    107e:	90 01       	movw	r18, r0
    1080:	0c 01       	movw	r0, r24
    1082:	ca 01       	movw	r24, r20
    1084:	a0 01       	movw	r20, r0
    1086:	11 24       	eor	r1, r1
    1088:	ff 27       	eor	r31, r31
    108a:	59 1b       	sub	r21, r25
    108c:	99 f0       	breq	.+38     	; 0x10b4 <__addsf3x+0x5c>
    108e:	59 3f       	cpi	r21, 0xF9	; 249
    1090:	50 f4       	brcc	.+20     	; 0x10a6 <__addsf3x+0x4e>
    1092:	50 3e       	cpi	r21, 0xE0	; 224
    1094:	68 f1       	brcs	.+90     	; 0x10f0 <__addsf3x+0x98>
    1096:	1a 16       	cp	r1, r26
    1098:	f0 40       	sbci	r31, 0x00	; 0
    109a:	a2 2f       	mov	r26, r18
    109c:	23 2f       	mov	r18, r19
    109e:	34 2f       	mov	r19, r20
    10a0:	44 27       	eor	r20, r20
    10a2:	58 5f       	subi	r21, 0xF8	; 248
    10a4:	f3 cf       	rjmp	.-26     	; 0x108c <__addsf3x+0x34>
    10a6:	46 95       	lsr	r20
    10a8:	37 95       	ror	r19
    10aa:	27 95       	ror	r18
    10ac:	a7 95       	ror	r26
    10ae:	f0 40       	sbci	r31, 0x00	; 0
    10b0:	53 95       	inc	r21
    10b2:	c9 f7       	brne	.-14     	; 0x10a6 <__addsf3x+0x4e>
    10b4:	7e f4       	brtc	.+30     	; 0x10d4 <__addsf3x+0x7c>
    10b6:	1f 16       	cp	r1, r31
    10b8:	ba 0b       	sbc	r27, r26
    10ba:	62 0b       	sbc	r22, r18
    10bc:	73 0b       	sbc	r23, r19
    10be:	84 0b       	sbc	r24, r20
    10c0:	ba f0       	brmi	.+46     	; 0x10f0 <__addsf3x+0x98>
    10c2:	91 50       	subi	r25, 0x01	; 1
    10c4:	a1 f0       	breq	.+40     	; 0x10ee <__addsf3x+0x96>
    10c6:	ff 0f       	add	r31, r31
    10c8:	bb 1f       	adc	r27, r27
    10ca:	66 1f       	adc	r22, r22
    10cc:	77 1f       	adc	r23, r23
    10ce:	88 1f       	adc	r24, r24
    10d0:	c2 f7       	brpl	.-16     	; 0x10c2 <__addsf3x+0x6a>
    10d2:	0e c0       	rjmp	.+28     	; 0x10f0 <__addsf3x+0x98>
    10d4:	ba 0f       	add	r27, r26
    10d6:	62 1f       	adc	r22, r18
    10d8:	73 1f       	adc	r23, r19
    10da:	84 1f       	adc	r24, r20
    10dc:	48 f4       	brcc	.+18     	; 0x10f0 <__addsf3x+0x98>
    10de:	87 95       	ror	r24
    10e0:	77 95       	ror	r23
    10e2:	67 95       	ror	r22
    10e4:	b7 95       	ror	r27
    10e6:	f7 95       	ror	r31
    10e8:	9e 3f       	cpi	r25, 0xFE	; 254
    10ea:	08 f0       	brcs	.+2      	; 0x10ee <__addsf3x+0x96>
    10ec:	b3 cf       	rjmp	.-154    	; 0x1054 <__addsf3+0x1e>
    10ee:	93 95       	inc	r25
    10f0:	88 0f       	add	r24, r24
    10f2:	08 f0       	brcs	.+2      	; 0x10f6 <__addsf3x+0x9e>
    10f4:	99 27       	eor	r25, r25
    10f6:	ee 0f       	add	r30, r30
    10f8:	97 95       	ror	r25
    10fa:	87 95       	ror	r24
    10fc:	08 95       	ret

000010fe <__cmpsf2>:
    10fe:	d9 d0       	rcall	.+434    	; 0x12b2 <__fp_cmp>
    1100:	08 f4       	brcc	.+2      	; 0x1104 <__stack+0x5>
    1102:	81 e0       	ldi	r24, 0x01	; 1
    1104:	08 95       	ret

00001106 <__divsf3>:
    1106:	0c d0       	rcall	.+24     	; 0x1120 <__divsf3x>
    1108:	0f c1       	rjmp	.+542    	; 0x1328 <__fp_round>
    110a:	07 d1       	rcall	.+526    	; 0x131a <__fp_pscB>
    110c:	40 f0       	brcs	.+16     	; 0x111e <__divsf3+0x18>
    110e:	fe d0       	rcall	.+508    	; 0x130c <__fp_pscA>
    1110:	30 f0       	brcs	.+12     	; 0x111e <__divsf3+0x18>
    1112:	21 f4       	brne	.+8      	; 0x111c <__divsf3+0x16>
    1114:	5f 3f       	cpi	r21, 0xFF	; 255
    1116:	19 f0       	breq	.+6      	; 0x111e <__divsf3+0x18>
    1118:	f0 c0       	rjmp	.+480    	; 0x12fa <__fp_inf>
    111a:	51 11       	cpse	r21, r1
    111c:	39 c1       	rjmp	.+626    	; 0x1390 <__fp_szero>
    111e:	f3 c0       	rjmp	.+486    	; 0x1306 <__fp_nan>

00001120 <__divsf3x>:
    1120:	14 d1       	rcall	.+552    	; 0x134a <__fp_split3>
    1122:	98 f3       	brcs	.-26     	; 0x110a <__divsf3+0x4>

00001124 <__divsf3_pse>:
    1124:	99 23       	and	r25, r25
    1126:	c9 f3       	breq	.-14     	; 0x111a <__divsf3+0x14>
    1128:	55 23       	and	r21, r21
    112a:	b1 f3       	breq	.-20     	; 0x1118 <__divsf3+0x12>
    112c:	95 1b       	sub	r25, r21
    112e:	55 0b       	sbc	r21, r21
    1130:	bb 27       	eor	r27, r27
    1132:	aa 27       	eor	r26, r26
    1134:	62 17       	cp	r22, r18
    1136:	73 07       	cpc	r23, r19
    1138:	84 07       	cpc	r24, r20
    113a:	38 f0       	brcs	.+14     	; 0x114a <__divsf3_pse+0x26>
    113c:	9f 5f       	subi	r25, 0xFF	; 255
    113e:	5f 4f       	sbci	r21, 0xFF	; 255
    1140:	22 0f       	add	r18, r18
    1142:	33 1f       	adc	r19, r19
    1144:	44 1f       	adc	r20, r20
    1146:	aa 1f       	adc	r26, r26
    1148:	a9 f3       	breq	.-22     	; 0x1134 <__divsf3_pse+0x10>
    114a:	33 d0       	rcall	.+102    	; 0x11b2 <__divsf3_pse+0x8e>
    114c:	0e 2e       	mov	r0, r30
    114e:	3a f0       	brmi	.+14     	; 0x115e <__divsf3_pse+0x3a>
    1150:	e0 e8       	ldi	r30, 0x80	; 128
    1152:	30 d0       	rcall	.+96     	; 0x11b4 <__divsf3_pse+0x90>
    1154:	91 50       	subi	r25, 0x01	; 1
    1156:	50 40       	sbci	r21, 0x00	; 0
    1158:	e6 95       	lsr	r30
    115a:	00 1c       	adc	r0, r0
    115c:	ca f7       	brpl	.-14     	; 0x1150 <__divsf3_pse+0x2c>
    115e:	29 d0       	rcall	.+82     	; 0x11b2 <__divsf3_pse+0x8e>
    1160:	fe 2f       	mov	r31, r30
    1162:	27 d0       	rcall	.+78     	; 0x11b2 <__divsf3_pse+0x8e>
    1164:	66 0f       	add	r22, r22
    1166:	77 1f       	adc	r23, r23
    1168:	88 1f       	adc	r24, r24
    116a:	bb 1f       	adc	r27, r27
    116c:	26 17       	cp	r18, r22
    116e:	37 07       	cpc	r19, r23
    1170:	48 07       	cpc	r20, r24
    1172:	ab 07       	cpc	r26, r27
    1174:	b0 e8       	ldi	r27, 0x80	; 128
    1176:	09 f0       	breq	.+2      	; 0x117a <__divsf3_pse+0x56>
    1178:	bb 0b       	sbc	r27, r27
    117a:	80 2d       	mov	r24, r0
    117c:	bf 01       	movw	r22, r30
    117e:	ff 27       	eor	r31, r31
    1180:	93 58       	subi	r25, 0x83	; 131
    1182:	5f 4f       	sbci	r21, 0xFF	; 255
    1184:	2a f0       	brmi	.+10     	; 0x1190 <__divsf3_pse+0x6c>
    1186:	9e 3f       	cpi	r25, 0xFE	; 254
    1188:	51 05       	cpc	r21, r1
    118a:	68 f0       	brcs	.+26     	; 0x11a6 <__divsf3_pse+0x82>
    118c:	b6 c0       	rjmp	.+364    	; 0x12fa <__fp_inf>
    118e:	00 c1       	rjmp	.+512    	; 0x1390 <__fp_szero>
    1190:	5f 3f       	cpi	r21, 0xFF	; 255
    1192:	ec f3       	brlt	.-6      	; 0x118e <__divsf3_pse+0x6a>
    1194:	98 3e       	cpi	r25, 0xE8	; 232
    1196:	dc f3       	brlt	.-10     	; 0x118e <__divsf3_pse+0x6a>
    1198:	86 95       	lsr	r24
    119a:	77 95       	ror	r23
    119c:	67 95       	ror	r22
    119e:	b7 95       	ror	r27
    11a0:	f7 95       	ror	r31
    11a2:	9f 5f       	subi	r25, 0xFF	; 255
    11a4:	c9 f7       	brne	.-14     	; 0x1198 <__divsf3_pse+0x74>
    11a6:	88 0f       	add	r24, r24
    11a8:	91 1d       	adc	r25, r1
    11aa:	96 95       	lsr	r25
    11ac:	87 95       	ror	r24
    11ae:	97 f9       	bld	r25, 7
    11b0:	08 95       	ret
    11b2:	e1 e0       	ldi	r30, 0x01	; 1
    11b4:	66 0f       	add	r22, r22
    11b6:	77 1f       	adc	r23, r23
    11b8:	88 1f       	adc	r24, r24
    11ba:	bb 1f       	adc	r27, r27
    11bc:	62 17       	cp	r22, r18
    11be:	73 07       	cpc	r23, r19
    11c0:	84 07       	cpc	r24, r20
    11c2:	ba 07       	cpc	r27, r26
    11c4:	20 f0       	brcs	.+8      	; 0x11ce <__divsf3_pse+0xaa>
    11c6:	62 1b       	sub	r22, r18
    11c8:	73 0b       	sbc	r23, r19
    11ca:	84 0b       	sbc	r24, r20
    11cc:	ba 0b       	sbc	r27, r26
    11ce:	ee 1f       	adc	r30, r30
    11d0:	88 f7       	brcc	.-30     	; 0x11b4 <__divsf3_pse+0x90>
    11d2:	e0 95       	com	r30
    11d4:	08 95       	ret

000011d6 <__fixsfsi>:
    11d6:	04 d0       	rcall	.+8      	; 0x11e0 <__fixunssfsi>
    11d8:	68 94       	set
    11da:	b1 11       	cpse	r27, r1
    11dc:	d9 c0       	rjmp	.+434    	; 0x1390 <__fp_szero>
    11de:	08 95       	ret

000011e0 <__fixunssfsi>:
    11e0:	bc d0       	rcall	.+376    	; 0x135a <__fp_splitA>
    11e2:	88 f0       	brcs	.+34     	; 0x1206 <__fixunssfsi+0x26>
    11e4:	9f 57       	subi	r25, 0x7F	; 127
    11e6:	90 f0       	brcs	.+36     	; 0x120c <__fixunssfsi+0x2c>
    11e8:	b9 2f       	mov	r27, r25
    11ea:	99 27       	eor	r25, r25
    11ec:	b7 51       	subi	r27, 0x17	; 23
    11ee:	a0 f0       	brcs	.+40     	; 0x1218 <__fixunssfsi+0x38>
    11f0:	d1 f0       	breq	.+52     	; 0x1226 <__fixunssfsi+0x46>
    11f2:	66 0f       	add	r22, r22
    11f4:	77 1f       	adc	r23, r23
    11f6:	88 1f       	adc	r24, r24
    11f8:	99 1f       	adc	r25, r25
    11fa:	1a f0       	brmi	.+6      	; 0x1202 <__fixunssfsi+0x22>
    11fc:	ba 95       	dec	r27
    11fe:	c9 f7       	brne	.-14     	; 0x11f2 <__fixunssfsi+0x12>
    1200:	12 c0       	rjmp	.+36     	; 0x1226 <__fixunssfsi+0x46>
    1202:	b1 30       	cpi	r27, 0x01	; 1
    1204:	81 f0       	breq	.+32     	; 0x1226 <__fixunssfsi+0x46>
    1206:	c3 d0       	rcall	.+390    	; 0x138e <__fp_zero>
    1208:	b1 e0       	ldi	r27, 0x01	; 1
    120a:	08 95       	ret
    120c:	c0 c0       	rjmp	.+384    	; 0x138e <__fp_zero>
    120e:	67 2f       	mov	r22, r23
    1210:	78 2f       	mov	r23, r24
    1212:	88 27       	eor	r24, r24
    1214:	b8 5f       	subi	r27, 0xF8	; 248
    1216:	39 f0       	breq	.+14     	; 0x1226 <__fixunssfsi+0x46>
    1218:	b9 3f       	cpi	r27, 0xF9	; 249
    121a:	cc f3       	brlt	.-14     	; 0x120e <__fixunssfsi+0x2e>
    121c:	86 95       	lsr	r24
    121e:	77 95       	ror	r23
    1220:	67 95       	ror	r22
    1222:	b3 95       	inc	r27
    1224:	d9 f7       	brne	.-10     	; 0x121c <__fixunssfsi+0x3c>
    1226:	3e f4       	brtc	.+14     	; 0x1236 <__fixunssfsi+0x56>
    1228:	90 95       	com	r25
    122a:	80 95       	com	r24
    122c:	70 95       	com	r23
    122e:	61 95       	neg	r22
    1230:	7f 4f       	sbci	r23, 0xFF	; 255
    1232:	8f 4f       	sbci	r24, 0xFF	; 255
    1234:	9f 4f       	sbci	r25, 0xFF	; 255
    1236:	08 95       	ret

00001238 <__floatunsisf>:
    1238:	e8 94       	clt
    123a:	09 c0       	rjmp	.+18     	; 0x124e <__floatsisf+0x12>

0000123c <__floatsisf>:
    123c:	97 fb       	bst	r25, 7
    123e:	3e f4       	brtc	.+14     	; 0x124e <__floatsisf+0x12>
    1240:	90 95       	com	r25
    1242:	80 95       	com	r24
    1244:	70 95       	com	r23
    1246:	61 95       	neg	r22
    1248:	7f 4f       	sbci	r23, 0xFF	; 255
    124a:	8f 4f       	sbci	r24, 0xFF	; 255
    124c:	9f 4f       	sbci	r25, 0xFF	; 255
    124e:	99 23       	and	r25, r25
    1250:	a9 f0       	breq	.+42     	; 0x127c <__floatsisf+0x40>
    1252:	f9 2f       	mov	r31, r25
    1254:	96 e9       	ldi	r25, 0x96	; 150
    1256:	bb 27       	eor	r27, r27
    1258:	93 95       	inc	r25
    125a:	f6 95       	lsr	r31
    125c:	87 95       	ror	r24
    125e:	77 95       	ror	r23
    1260:	67 95       	ror	r22
    1262:	b7 95       	ror	r27
    1264:	f1 11       	cpse	r31, r1
    1266:	f8 cf       	rjmp	.-16     	; 0x1258 <__floatsisf+0x1c>
    1268:	fa f4       	brpl	.+62     	; 0x12a8 <__floatsisf+0x6c>
    126a:	bb 0f       	add	r27, r27
    126c:	11 f4       	brne	.+4      	; 0x1272 <__floatsisf+0x36>
    126e:	60 ff       	sbrs	r22, 0
    1270:	1b c0       	rjmp	.+54     	; 0x12a8 <__floatsisf+0x6c>
    1272:	6f 5f       	subi	r22, 0xFF	; 255
    1274:	7f 4f       	sbci	r23, 0xFF	; 255
    1276:	8f 4f       	sbci	r24, 0xFF	; 255
    1278:	9f 4f       	sbci	r25, 0xFF	; 255
    127a:	16 c0       	rjmp	.+44     	; 0x12a8 <__floatsisf+0x6c>
    127c:	88 23       	and	r24, r24
    127e:	11 f0       	breq	.+4      	; 0x1284 <__floatsisf+0x48>
    1280:	96 e9       	ldi	r25, 0x96	; 150
    1282:	11 c0       	rjmp	.+34     	; 0x12a6 <__floatsisf+0x6a>
    1284:	77 23       	and	r23, r23
    1286:	21 f0       	breq	.+8      	; 0x1290 <__floatsisf+0x54>
    1288:	9e e8       	ldi	r25, 0x8E	; 142
    128a:	87 2f       	mov	r24, r23
    128c:	76 2f       	mov	r23, r22
    128e:	05 c0       	rjmp	.+10     	; 0x129a <__floatsisf+0x5e>
    1290:	66 23       	and	r22, r22
    1292:	71 f0       	breq	.+28     	; 0x12b0 <__floatsisf+0x74>
    1294:	96 e8       	ldi	r25, 0x86	; 134
    1296:	86 2f       	mov	r24, r22
    1298:	70 e0       	ldi	r23, 0x00	; 0
    129a:	60 e0       	ldi	r22, 0x00	; 0
    129c:	2a f0       	brmi	.+10     	; 0x12a8 <__floatsisf+0x6c>
    129e:	9a 95       	dec	r25
    12a0:	66 0f       	add	r22, r22
    12a2:	77 1f       	adc	r23, r23
    12a4:	88 1f       	adc	r24, r24
    12a6:	da f7       	brpl	.-10     	; 0x129e <__floatsisf+0x62>
    12a8:	88 0f       	add	r24, r24
    12aa:	96 95       	lsr	r25
    12ac:	87 95       	ror	r24
    12ae:	97 f9       	bld	r25, 7
    12b0:	08 95       	ret

000012b2 <__fp_cmp>:
    12b2:	99 0f       	add	r25, r25
    12b4:	00 08       	sbc	r0, r0
    12b6:	55 0f       	add	r21, r21
    12b8:	aa 0b       	sbc	r26, r26
    12ba:	e0 e8       	ldi	r30, 0x80	; 128
    12bc:	fe ef       	ldi	r31, 0xFE	; 254
    12be:	16 16       	cp	r1, r22
    12c0:	17 06       	cpc	r1, r23
    12c2:	e8 07       	cpc	r30, r24
    12c4:	f9 07       	cpc	r31, r25
    12c6:	c0 f0       	brcs	.+48     	; 0x12f8 <__fp_cmp+0x46>
    12c8:	12 16       	cp	r1, r18
    12ca:	13 06       	cpc	r1, r19
    12cc:	e4 07       	cpc	r30, r20
    12ce:	f5 07       	cpc	r31, r21
    12d0:	98 f0       	brcs	.+38     	; 0x12f8 <__fp_cmp+0x46>
    12d2:	62 1b       	sub	r22, r18
    12d4:	73 0b       	sbc	r23, r19
    12d6:	84 0b       	sbc	r24, r20
    12d8:	95 0b       	sbc	r25, r21
    12da:	39 f4       	brne	.+14     	; 0x12ea <__fp_cmp+0x38>
    12dc:	0a 26       	eor	r0, r26
    12de:	61 f0       	breq	.+24     	; 0x12f8 <__fp_cmp+0x46>
    12e0:	23 2b       	or	r18, r19
    12e2:	24 2b       	or	r18, r20
    12e4:	25 2b       	or	r18, r21
    12e6:	21 f4       	brne	.+8      	; 0x12f0 <__fp_cmp+0x3e>
    12e8:	08 95       	ret
    12ea:	0a 26       	eor	r0, r26
    12ec:	09 f4       	brne	.+2      	; 0x12f0 <__fp_cmp+0x3e>
    12ee:	a1 40       	sbci	r26, 0x01	; 1
    12f0:	a6 95       	lsr	r26
    12f2:	8f ef       	ldi	r24, 0xFF	; 255
    12f4:	81 1d       	adc	r24, r1
    12f6:	81 1d       	adc	r24, r1
    12f8:	08 95       	ret

000012fa <__fp_inf>:
    12fa:	97 f9       	bld	r25, 7
    12fc:	9f 67       	ori	r25, 0x7F	; 127
    12fe:	80 e8       	ldi	r24, 0x80	; 128
    1300:	70 e0       	ldi	r23, 0x00	; 0
    1302:	60 e0       	ldi	r22, 0x00	; 0
    1304:	08 95       	ret

00001306 <__fp_nan>:
    1306:	9f ef       	ldi	r25, 0xFF	; 255
    1308:	80 ec       	ldi	r24, 0xC0	; 192
    130a:	08 95       	ret

0000130c <__fp_pscA>:
    130c:	00 24       	eor	r0, r0
    130e:	0a 94       	dec	r0
    1310:	16 16       	cp	r1, r22
    1312:	17 06       	cpc	r1, r23
    1314:	18 06       	cpc	r1, r24
    1316:	09 06       	cpc	r0, r25
    1318:	08 95       	ret

0000131a <__fp_pscB>:
    131a:	00 24       	eor	r0, r0
    131c:	0a 94       	dec	r0
    131e:	12 16       	cp	r1, r18
    1320:	13 06       	cpc	r1, r19
    1322:	14 06       	cpc	r1, r20
    1324:	05 06       	cpc	r0, r21
    1326:	08 95       	ret

00001328 <__fp_round>:
    1328:	09 2e       	mov	r0, r25
    132a:	03 94       	inc	r0
    132c:	00 0c       	add	r0, r0
    132e:	11 f4       	brne	.+4      	; 0x1334 <__fp_round+0xc>
    1330:	88 23       	and	r24, r24
    1332:	52 f0       	brmi	.+20     	; 0x1348 <__fp_round+0x20>
    1334:	bb 0f       	add	r27, r27
    1336:	40 f4       	brcc	.+16     	; 0x1348 <__fp_round+0x20>
    1338:	bf 2b       	or	r27, r31
    133a:	11 f4       	brne	.+4      	; 0x1340 <__fp_round+0x18>
    133c:	60 ff       	sbrs	r22, 0
    133e:	04 c0       	rjmp	.+8      	; 0x1348 <__fp_round+0x20>
    1340:	6f 5f       	subi	r22, 0xFF	; 255
    1342:	7f 4f       	sbci	r23, 0xFF	; 255
    1344:	8f 4f       	sbci	r24, 0xFF	; 255
    1346:	9f 4f       	sbci	r25, 0xFF	; 255
    1348:	08 95       	ret

0000134a <__fp_split3>:
    134a:	57 fd       	sbrc	r21, 7
    134c:	90 58       	subi	r25, 0x80	; 128
    134e:	44 0f       	add	r20, r20
    1350:	55 1f       	adc	r21, r21
    1352:	59 f0       	breq	.+22     	; 0x136a <__fp_splitA+0x10>
    1354:	5f 3f       	cpi	r21, 0xFF	; 255
    1356:	71 f0       	breq	.+28     	; 0x1374 <__fp_splitA+0x1a>
    1358:	47 95       	ror	r20

0000135a <__fp_splitA>:
    135a:	88 0f       	add	r24, r24
    135c:	97 fb       	bst	r25, 7
    135e:	99 1f       	adc	r25, r25
    1360:	61 f0       	breq	.+24     	; 0x137a <__fp_splitA+0x20>
    1362:	9f 3f       	cpi	r25, 0xFF	; 255
    1364:	79 f0       	breq	.+30     	; 0x1384 <__fp_splitA+0x2a>
    1366:	87 95       	ror	r24
    1368:	08 95       	ret
    136a:	12 16       	cp	r1, r18
    136c:	13 06       	cpc	r1, r19
    136e:	14 06       	cpc	r1, r20
    1370:	55 1f       	adc	r21, r21
    1372:	f2 cf       	rjmp	.-28     	; 0x1358 <__fp_split3+0xe>
    1374:	46 95       	lsr	r20
    1376:	f1 df       	rcall	.-30     	; 0x135a <__fp_splitA>
    1378:	08 c0       	rjmp	.+16     	; 0x138a <__fp_splitA+0x30>
    137a:	16 16       	cp	r1, r22
    137c:	17 06       	cpc	r1, r23
    137e:	18 06       	cpc	r1, r24
    1380:	99 1f       	adc	r25, r25
    1382:	f1 cf       	rjmp	.-30     	; 0x1366 <__fp_splitA+0xc>
    1384:	86 95       	lsr	r24
    1386:	71 05       	cpc	r23, r1
    1388:	61 05       	cpc	r22, r1
    138a:	08 94       	sec
    138c:	08 95       	ret

0000138e <__fp_zero>:
    138e:	e8 94       	clt

00001390 <__fp_szero>:
    1390:	bb 27       	eor	r27, r27
    1392:	66 27       	eor	r22, r22
    1394:	77 27       	eor	r23, r23
    1396:	cb 01       	movw	r24, r22
    1398:	97 f9       	bld	r25, 7
    139a:	08 95       	ret

0000139c <__gesf2>:
    139c:	8a df       	rcall	.-236    	; 0x12b2 <__fp_cmp>
    139e:	08 f4       	brcc	.+2      	; 0x13a2 <__gesf2+0x6>
    13a0:	8f ef       	ldi	r24, 0xFF	; 255
    13a2:	08 95       	ret

000013a4 <__mulsf3>:
    13a4:	0b d0       	rcall	.+22     	; 0x13bc <__mulsf3x>
    13a6:	c0 cf       	rjmp	.-128    	; 0x1328 <__fp_round>
    13a8:	b1 df       	rcall	.-158    	; 0x130c <__fp_pscA>
    13aa:	28 f0       	brcs	.+10     	; 0x13b6 <__mulsf3+0x12>
    13ac:	b6 df       	rcall	.-148    	; 0x131a <__fp_pscB>
    13ae:	18 f0       	brcs	.+6      	; 0x13b6 <__mulsf3+0x12>
    13b0:	95 23       	and	r25, r21
    13b2:	09 f0       	breq	.+2      	; 0x13b6 <__mulsf3+0x12>
    13b4:	a2 cf       	rjmp	.-188    	; 0x12fa <__fp_inf>
    13b6:	a7 cf       	rjmp	.-178    	; 0x1306 <__fp_nan>
    13b8:	11 24       	eor	r1, r1
    13ba:	ea cf       	rjmp	.-44     	; 0x1390 <__fp_szero>

000013bc <__mulsf3x>:
    13bc:	c6 df       	rcall	.-116    	; 0x134a <__fp_split3>
    13be:	a0 f3       	brcs	.-24     	; 0x13a8 <__mulsf3+0x4>

000013c0 <__mulsf3_pse>:
    13c0:	95 9f       	mul	r25, r21
    13c2:	d1 f3       	breq	.-12     	; 0x13b8 <__mulsf3+0x14>
    13c4:	95 0f       	add	r25, r21
    13c6:	50 e0       	ldi	r21, 0x00	; 0
    13c8:	55 1f       	adc	r21, r21
    13ca:	62 9f       	mul	r22, r18
    13cc:	f0 01       	movw	r30, r0
    13ce:	72 9f       	mul	r23, r18
    13d0:	bb 27       	eor	r27, r27
    13d2:	f0 0d       	add	r31, r0
    13d4:	b1 1d       	adc	r27, r1
    13d6:	63 9f       	mul	r22, r19
    13d8:	aa 27       	eor	r26, r26
    13da:	f0 0d       	add	r31, r0
    13dc:	b1 1d       	adc	r27, r1
    13de:	aa 1f       	adc	r26, r26
    13e0:	64 9f       	mul	r22, r20
    13e2:	66 27       	eor	r22, r22
    13e4:	b0 0d       	add	r27, r0
    13e6:	a1 1d       	adc	r26, r1
    13e8:	66 1f       	adc	r22, r22
    13ea:	82 9f       	mul	r24, r18
    13ec:	22 27       	eor	r18, r18
    13ee:	b0 0d       	add	r27, r0
    13f0:	a1 1d       	adc	r26, r1
    13f2:	62 1f       	adc	r22, r18
    13f4:	73 9f       	mul	r23, r19
    13f6:	b0 0d       	add	r27, r0
    13f8:	a1 1d       	adc	r26, r1
    13fa:	62 1f       	adc	r22, r18
    13fc:	83 9f       	mul	r24, r19
    13fe:	a0 0d       	add	r26, r0
    1400:	61 1d       	adc	r22, r1
    1402:	22 1f       	adc	r18, r18
    1404:	74 9f       	mul	r23, r20
    1406:	33 27       	eor	r19, r19
    1408:	a0 0d       	add	r26, r0
    140a:	61 1d       	adc	r22, r1
    140c:	23 1f       	adc	r18, r19
    140e:	84 9f       	mul	r24, r20
    1410:	60 0d       	add	r22, r0
    1412:	21 1d       	adc	r18, r1
    1414:	82 2f       	mov	r24, r18
    1416:	76 2f       	mov	r23, r22
    1418:	6a 2f       	mov	r22, r26
    141a:	11 24       	eor	r1, r1
    141c:	9f 57       	subi	r25, 0x7F	; 127
    141e:	50 40       	sbci	r21, 0x00	; 0
    1420:	8a f0       	brmi	.+34     	; 0x1444 <__mulsf3_pse+0x84>
    1422:	e1 f0       	breq	.+56     	; 0x145c <__mulsf3_pse+0x9c>
    1424:	88 23       	and	r24, r24
    1426:	4a f0       	brmi	.+18     	; 0x143a <__mulsf3_pse+0x7a>
    1428:	ee 0f       	add	r30, r30
    142a:	ff 1f       	adc	r31, r31
    142c:	bb 1f       	adc	r27, r27
    142e:	66 1f       	adc	r22, r22
    1430:	77 1f       	adc	r23, r23
    1432:	88 1f       	adc	r24, r24
    1434:	91 50       	subi	r25, 0x01	; 1
    1436:	50 40       	sbci	r21, 0x00	; 0
    1438:	a9 f7       	brne	.-22     	; 0x1424 <__mulsf3_pse+0x64>
    143a:	9e 3f       	cpi	r25, 0xFE	; 254
    143c:	51 05       	cpc	r21, r1
    143e:	70 f0       	brcs	.+28     	; 0x145c <__mulsf3_pse+0x9c>
    1440:	5c cf       	rjmp	.-328    	; 0x12fa <__fp_inf>
    1442:	a6 cf       	rjmp	.-180    	; 0x1390 <__fp_szero>
    1444:	5f 3f       	cpi	r21, 0xFF	; 255
    1446:	ec f3       	brlt	.-6      	; 0x1442 <__mulsf3_pse+0x82>
    1448:	98 3e       	cpi	r25, 0xE8	; 232
    144a:	dc f3       	brlt	.-10     	; 0x1442 <__mulsf3_pse+0x82>
    144c:	86 95       	lsr	r24
    144e:	77 95       	ror	r23
    1450:	67 95       	ror	r22
    1452:	b7 95       	ror	r27
    1454:	f7 95       	ror	r31
    1456:	e7 95       	ror	r30
    1458:	9f 5f       	subi	r25, 0xFF	; 255
    145a:	c1 f7       	brne	.-16     	; 0x144c <__mulsf3_pse+0x8c>
    145c:	fe 2b       	or	r31, r30
    145e:	88 0f       	add	r24, r24
    1460:	91 1d       	adc	r25, r1
    1462:	96 95       	lsr	r25
    1464:	87 95       	ror	r24
    1466:	97 f9       	bld	r25, 7
    1468:	08 95       	ret

0000146a <__prologue_saves__>:
    146a:	2f 92       	push	r2
    146c:	3f 92       	push	r3
    146e:	4f 92       	push	r4
    1470:	5f 92       	push	r5
    1472:	6f 92       	push	r6
    1474:	7f 92       	push	r7
    1476:	8f 92       	push	r8
    1478:	9f 92       	push	r9
    147a:	af 92       	push	r10
    147c:	bf 92       	push	r11
    147e:	cf 92       	push	r12
    1480:	df 92       	push	r13
    1482:	ef 92       	push	r14
    1484:	ff 92       	push	r15
    1486:	0f 93       	push	r16
    1488:	1f 93       	push	r17
    148a:	cf 93       	push	r28
    148c:	df 93       	push	r29
    148e:	cd b7       	in	r28, 0x3d	; 61
    1490:	de b7       	in	r29, 0x3e	; 62
    1492:	ca 1b       	sub	r28, r26
    1494:	db 0b       	sbc	r29, r27
    1496:	0f b6       	in	r0, 0x3f	; 63
    1498:	f8 94       	cli
    149a:	de bf       	out	0x3e, r29	; 62
    149c:	0f be       	out	0x3f, r0	; 63
    149e:	cd bf       	out	0x3d, r28	; 61
    14a0:	09 94       	ijmp

000014a2 <__epilogue_restores__>:
    14a2:	2a 88       	ldd	r2, Y+18	; 0x12
    14a4:	39 88       	ldd	r3, Y+17	; 0x11
    14a6:	48 88       	ldd	r4, Y+16	; 0x10
    14a8:	5f 84       	ldd	r5, Y+15	; 0x0f
    14aa:	6e 84       	ldd	r6, Y+14	; 0x0e
    14ac:	7d 84       	ldd	r7, Y+13	; 0x0d
    14ae:	8c 84       	ldd	r8, Y+12	; 0x0c
    14b0:	9b 84       	ldd	r9, Y+11	; 0x0b
    14b2:	aa 84       	ldd	r10, Y+10	; 0x0a
    14b4:	b9 84       	ldd	r11, Y+9	; 0x09
    14b6:	c8 84       	ldd	r12, Y+8	; 0x08
    14b8:	df 80       	ldd	r13, Y+7	; 0x07
    14ba:	ee 80       	ldd	r14, Y+6	; 0x06
    14bc:	fd 80       	ldd	r15, Y+5	; 0x05
    14be:	0c 81       	ldd	r16, Y+4	; 0x04
    14c0:	1b 81       	ldd	r17, Y+3	; 0x03
    14c2:	aa 81       	ldd	r26, Y+2	; 0x02
    14c4:	b9 81       	ldd	r27, Y+1	; 0x01
    14c6:	ce 0f       	add	r28, r30
    14c8:	d1 1d       	adc	r29, r1
    14ca:	0f b6       	in	r0, 0x3f	; 63
    14cc:	f8 94       	cli
    14ce:	de bf       	out	0x3e, r29	; 62
    14d0:	0f be       	out	0x3f, r0	; 63
    14d2:	cd bf       	out	0x3d, r28	; 61
    14d4:	ed 01       	movw	r28, r26
    14d6:	08 95       	ret

000014d8 <__ftoa_engine>:
    14d8:	28 30       	cpi	r18, 0x08	; 8
    14da:	08 f0       	brcs	.+2      	; 0x14de <__ftoa_engine+0x6>
    14dc:	27 e0       	ldi	r18, 0x07	; 7
    14de:	33 27       	eor	r19, r19
    14e0:	da 01       	movw	r26, r20
    14e2:	99 0f       	add	r25, r25
    14e4:	31 1d       	adc	r19, r1
    14e6:	87 fd       	sbrc	r24, 7
    14e8:	91 60       	ori	r25, 0x01	; 1
    14ea:	00 96       	adiw	r24, 0x00	; 0
    14ec:	61 05       	cpc	r22, r1
    14ee:	71 05       	cpc	r23, r1
    14f0:	39 f4       	brne	.+14     	; 0x1500 <__ftoa_engine+0x28>
    14f2:	32 60       	ori	r19, 0x02	; 2
    14f4:	2e 5f       	subi	r18, 0xFE	; 254
    14f6:	3d 93       	st	X+, r19
    14f8:	30 e3       	ldi	r19, 0x30	; 48
    14fa:	2a 95       	dec	r18
    14fc:	e1 f7       	brne	.-8      	; 0x14f6 <__ftoa_engine+0x1e>
    14fe:	08 95       	ret
    1500:	9f 3f       	cpi	r25, 0xFF	; 255
    1502:	30 f0       	brcs	.+12     	; 0x1510 <__ftoa_engine+0x38>
    1504:	80 38       	cpi	r24, 0x80	; 128
    1506:	71 05       	cpc	r23, r1
    1508:	61 05       	cpc	r22, r1
    150a:	09 f0       	breq	.+2      	; 0x150e <__ftoa_engine+0x36>
    150c:	3c 5f       	subi	r19, 0xFC	; 252
    150e:	3c 5f       	subi	r19, 0xFC	; 252
    1510:	3d 93       	st	X+, r19
    1512:	91 30       	cpi	r25, 0x01	; 1
    1514:	08 f0       	brcs	.+2      	; 0x1518 <__ftoa_engine+0x40>
    1516:	80 68       	ori	r24, 0x80	; 128
    1518:	91 1d       	adc	r25, r1
    151a:	df 93       	push	r29
    151c:	cf 93       	push	r28
    151e:	1f 93       	push	r17
    1520:	0f 93       	push	r16
    1522:	ff 92       	push	r15
    1524:	ef 92       	push	r14
    1526:	19 2f       	mov	r17, r25
    1528:	98 7f       	andi	r25, 0xF8	; 248
    152a:	96 95       	lsr	r25
    152c:	e9 2f       	mov	r30, r25
    152e:	96 95       	lsr	r25
    1530:	96 95       	lsr	r25
    1532:	e9 0f       	add	r30, r25
    1534:	ff 27       	eor	r31, r31
    1536:	e2 52       	subi	r30, 0x22	; 34
    1538:	ff 4f       	sbci	r31, 0xFF	; 255
    153a:	99 27       	eor	r25, r25
    153c:	33 27       	eor	r19, r19
    153e:	ee 24       	eor	r14, r14
    1540:	ff 24       	eor	r15, r15
    1542:	a7 01       	movw	r20, r14
    1544:	e7 01       	movw	r28, r14
    1546:	05 90       	lpm	r0, Z+
    1548:	08 94       	sec
    154a:	07 94       	ror	r0
    154c:	28 f4       	brcc	.+10     	; 0x1558 <__ftoa_engine+0x80>
    154e:	36 0f       	add	r19, r22
    1550:	e7 1e       	adc	r14, r23
    1552:	f8 1e       	adc	r15, r24
    1554:	49 1f       	adc	r20, r25
    1556:	51 1d       	adc	r21, r1
    1558:	66 0f       	add	r22, r22
    155a:	77 1f       	adc	r23, r23
    155c:	88 1f       	adc	r24, r24
    155e:	99 1f       	adc	r25, r25
    1560:	06 94       	lsr	r0
    1562:	a1 f7       	brne	.-24     	; 0x154c <__ftoa_engine+0x74>
    1564:	05 90       	lpm	r0, Z+
    1566:	07 94       	ror	r0
    1568:	28 f4       	brcc	.+10     	; 0x1574 <__ftoa_engine+0x9c>
    156a:	e7 0e       	add	r14, r23
    156c:	f8 1e       	adc	r15, r24
    156e:	49 1f       	adc	r20, r25
    1570:	56 1f       	adc	r21, r22
    1572:	c1 1d       	adc	r28, r1
    1574:	77 0f       	add	r23, r23
    1576:	88 1f       	adc	r24, r24
    1578:	99 1f       	adc	r25, r25
    157a:	66 1f       	adc	r22, r22
    157c:	06 94       	lsr	r0
    157e:	a1 f7       	brne	.-24     	; 0x1568 <__ftoa_engine+0x90>
    1580:	05 90       	lpm	r0, Z+
    1582:	07 94       	ror	r0
    1584:	28 f4       	brcc	.+10     	; 0x1590 <__ftoa_engine+0xb8>
    1586:	f8 0e       	add	r15, r24
    1588:	49 1f       	adc	r20, r25
    158a:	56 1f       	adc	r21, r22
    158c:	c7 1f       	adc	r28, r23
    158e:	d1 1d       	adc	r29, r1
    1590:	88 0f       	add	r24, r24
    1592:	99 1f       	adc	r25, r25
    1594:	66 1f       	adc	r22, r22
    1596:	77 1f       	adc	r23, r23
    1598:	06 94       	lsr	r0
    159a:	a1 f7       	brne	.-24     	; 0x1584 <__ftoa_engine+0xac>
    159c:	05 90       	lpm	r0, Z+
    159e:	07 94       	ror	r0
    15a0:	20 f4       	brcc	.+8      	; 0x15aa <__ftoa_engine+0xd2>
    15a2:	49 0f       	add	r20, r25
    15a4:	56 1f       	adc	r21, r22
    15a6:	c7 1f       	adc	r28, r23
    15a8:	d8 1f       	adc	r29, r24
    15aa:	99 0f       	add	r25, r25
    15ac:	66 1f       	adc	r22, r22
    15ae:	77 1f       	adc	r23, r23
    15b0:	88 1f       	adc	r24, r24
    15b2:	06 94       	lsr	r0
    15b4:	a9 f7       	brne	.-22     	; 0x15a0 <__ftoa_engine+0xc8>
    15b6:	84 91       	lpm	r24, Z+
    15b8:	10 95       	com	r17
    15ba:	17 70       	andi	r17, 0x07	; 7
    15bc:	41 f0       	breq	.+16     	; 0x15ce <__ftoa_engine+0xf6>
    15be:	d6 95       	lsr	r29
    15c0:	c7 95       	ror	r28
    15c2:	57 95       	ror	r21
    15c4:	47 95       	ror	r20
    15c6:	f7 94       	ror	r15
    15c8:	e7 94       	ror	r14
    15ca:	1a 95       	dec	r17
    15cc:	c1 f7       	brne	.-16     	; 0x15be <__ftoa_engine+0xe6>
    15ce:	e4 e8       	ldi	r30, 0x84	; 132
    15d0:	f0 e0       	ldi	r31, 0x00	; 0
    15d2:	68 94       	set
    15d4:	15 90       	lpm	r1, Z+
    15d6:	15 91       	lpm	r17, Z+
    15d8:	35 91       	lpm	r19, Z+
    15da:	65 91       	lpm	r22, Z+
    15dc:	95 91       	lpm	r25, Z+
    15de:	05 90       	lpm	r0, Z+
    15e0:	7f e2       	ldi	r23, 0x2F	; 47
    15e2:	73 95       	inc	r23
    15e4:	e1 18       	sub	r14, r1
    15e6:	f1 0a       	sbc	r15, r17
    15e8:	43 0b       	sbc	r20, r19
    15ea:	56 0b       	sbc	r21, r22
    15ec:	c9 0b       	sbc	r28, r25
    15ee:	d0 09       	sbc	r29, r0
    15f0:	c0 f7       	brcc	.-16     	; 0x15e2 <__ftoa_engine+0x10a>
    15f2:	e1 0c       	add	r14, r1
    15f4:	f1 1e       	adc	r15, r17
    15f6:	43 1f       	adc	r20, r19
    15f8:	56 1f       	adc	r21, r22
    15fa:	c9 1f       	adc	r28, r25
    15fc:	d0 1d       	adc	r29, r0
    15fe:	7e f4       	brtc	.+30     	; 0x161e <__ftoa_engine+0x146>
    1600:	70 33       	cpi	r23, 0x30	; 48
    1602:	11 f4       	brne	.+4      	; 0x1608 <__ftoa_engine+0x130>
    1604:	8a 95       	dec	r24
    1606:	e6 cf       	rjmp	.-52     	; 0x15d4 <__ftoa_engine+0xfc>
    1608:	e8 94       	clt
    160a:	01 50       	subi	r16, 0x01	; 1
    160c:	30 f0       	brcs	.+12     	; 0x161a <__ftoa_engine+0x142>
    160e:	08 0f       	add	r16, r24
    1610:	0a f4       	brpl	.+2      	; 0x1614 <__ftoa_engine+0x13c>
    1612:	00 27       	eor	r16, r16
    1614:	02 17       	cp	r16, r18
    1616:	08 f4       	brcc	.+2      	; 0x161a <__ftoa_engine+0x142>
    1618:	20 2f       	mov	r18, r16
    161a:	23 95       	inc	r18
    161c:	02 2f       	mov	r16, r18
    161e:	7a 33       	cpi	r23, 0x3A	; 58
    1620:	28 f0       	brcs	.+10     	; 0x162c <__ftoa_engine+0x154>
    1622:	79 e3       	ldi	r23, 0x39	; 57
    1624:	7d 93       	st	X+, r23
    1626:	2a 95       	dec	r18
    1628:	e9 f7       	brne	.-6      	; 0x1624 <__ftoa_engine+0x14c>
    162a:	10 c0       	rjmp	.+32     	; 0x164c <__ftoa_engine+0x174>
    162c:	7d 93       	st	X+, r23
    162e:	2a 95       	dec	r18
    1630:	89 f6       	brne	.-94     	; 0x15d4 <__ftoa_engine+0xfc>
    1632:	06 94       	lsr	r0
    1634:	97 95       	ror	r25
    1636:	67 95       	ror	r22
    1638:	37 95       	ror	r19
    163a:	17 95       	ror	r17
    163c:	17 94       	ror	r1
    163e:	e1 18       	sub	r14, r1
    1640:	f1 0a       	sbc	r15, r17
    1642:	43 0b       	sbc	r20, r19
    1644:	56 0b       	sbc	r21, r22
    1646:	c9 0b       	sbc	r28, r25
    1648:	d0 09       	sbc	r29, r0
    164a:	98 f0       	brcs	.+38     	; 0x1672 <__ftoa_engine+0x19a>
    164c:	23 95       	inc	r18
    164e:	7e 91       	ld	r23, -X
    1650:	73 95       	inc	r23
    1652:	7a 33       	cpi	r23, 0x3A	; 58
    1654:	08 f0       	brcs	.+2      	; 0x1658 <__ftoa_engine+0x180>
    1656:	70 e3       	ldi	r23, 0x30	; 48
    1658:	7c 93       	st	X, r23
    165a:	20 13       	cpse	r18, r16
    165c:	b8 f7       	brcc	.-18     	; 0x164c <__ftoa_engine+0x174>
    165e:	7e 91       	ld	r23, -X
    1660:	70 61       	ori	r23, 0x10	; 16
    1662:	7d 93       	st	X+, r23
    1664:	30 f0       	brcs	.+12     	; 0x1672 <__ftoa_engine+0x19a>
    1666:	83 95       	inc	r24
    1668:	71 e3       	ldi	r23, 0x31	; 49
    166a:	7d 93       	st	X+, r23
    166c:	70 e3       	ldi	r23, 0x30	; 48
    166e:	2a 95       	dec	r18
    1670:	e1 f7       	brne	.-8      	; 0x166a <__ftoa_engine+0x192>
    1672:	11 24       	eor	r1, r1
    1674:	ef 90       	pop	r14
    1676:	ff 90       	pop	r15
    1678:	0f 91       	pop	r16
    167a:	1f 91       	pop	r17
    167c:	cf 91       	pop	r28
    167e:	df 91       	pop	r29
    1680:	99 27       	eor	r25, r25
    1682:	87 fd       	sbrc	r24, 7
    1684:	90 95       	com	r25
    1686:	08 95       	ret

00001688 <strnlen_P>:
    1688:	fc 01       	movw	r30, r24
    168a:	05 90       	lpm	r0, Z+
    168c:	61 50       	subi	r22, 0x01	; 1
    168e:	70 40       	sbci	r23, 0x00	; 0
    1690:	01 10       	cpse	r0, r1
    1692:	d8 f7       	brcc	.-10     	; 0x168a <strnlen_P+0x2>
    1694:	80 95       	com	r24
    1696:	90 95       	com	r25
    1698:	8e 0f       	add	r24, r30
    169a:	9f 1f       	adc	r25, r31
    169c:	08 95       	ret

0000169e <strnlen>:
    169e:	fc 01       	movw	r30, r24
    16a0:	61 50       	subi	r22, 0x01	; 1
    16a2:	70 40       	sbci	r23, 0x00	; 0
    16a4:	01 90       	ld	r0, Z+
    16a6:	01 10       	cpse	r0, r1
    16a8:	d8 f7       	brcc	.-10     	; 0x16a0 <strnlen+0x2>
    16aa:	80 95       	com	r24
    16ac:	90 95       	com	r25
    16ae:	8e 0f       	add	r24, r30
    16b0:	9f 1f       	adc	r25, r31
    16b2:	08 95       	ret

000016b4 <ltoa>:
    16b4:	fa 01       	movw	r30, r20
    16b6:	cf 93       	push	r28
    16b8:	ff 93       	push	r31
    16ba:	ef 93       	push	r30
    16bc:	22 30       	cpi	r18, 0x02	; 2
    16be:	44 f1       	brlt	.+80     	; 0x1710 <ltoa+0x5c>
    16c0:	25 32       	cpi	r18, 0x25	; 37
    16c2:	34 f5       	brge	.+76     	; 0x1710 <ltoa+0x5c>
    16c4:	c2 2f       	mov	r28, r18
    16c6:	e8 94       	clt
    16c8:	ca 30       	cpi	r28, 0x0A	; 10
    16ca:	49 f4       	brne	.+18     	; 0x16de <ltoa+0x2a>
    16cc:	97 fb       	bst	r25, 7
    16ce:	3e f4       	brtc	.+14     	; 0x16de <ltoa+0x2a>
    16d0:	90 95       	com	r25
    16d2:	80 95       	com	r24
    16d4:	70 95       	com	r23
    16d6:	61 95       	neg	r22
    16d8:	7f 4f       	sbci	r23, 0xFF	; 255
    16da:	8f 4f       	sbci	r24, 0xFF	; 255
    16dc:	9f 4f       	sbci	r25, 0xFF	; 255
    16de:	2c 2f       	mov	r18, r28
    16e0:	33 27       	eor	r19, r19
    16e2:	44 27       	eor	r20, r20
    16e4:	55 27       	eor	r21, r21
    16e6:	ff 93       	push	r31
    16e8:	ef 93       	push	r30
    16ea:	0e 94 28 0c 	call	0x1850	; 0x1850 <__udivmodsi4>
    16ee:	ef 91       	pop	r30
    16f0:	ff 91       	pop	r31
    16f2:	60 5d       	subi	r22, 0xD0	; 208
    16f4:	6a 33       	cpi	r22, 0x3A	; 58
    16f6:	0c f0       	brlt	.+2      	; 0x16fa <ltoa+0x46>
    16f8:	69 5d       	subi	r22, 0xD9	; 217
    16fa:	61 93       	st	Z+, r22
    16fc:	b9 01       	movw	r22, r18
    16fe:	ca 01       	movw	r24, r20
    1700:	60 50       	subi	r22, 0x00	; 0
    1702:	70 40       	sbci	r23, 0x00	; 0
    1704:	80 40       	sbci	r24, 0x00	; 0
    1706:	90 40       	sbci	r25, 0x00	; 0
    1708:	51 f7       	brne	.-44     	; 0x16de <ltoa+0x2a>
    170a:	16 f4       	brtc	.+4      	; 0x1710 <ltoa+0x5c>
    170c:	cd e2       	ldi	r28, 0x2D	; 45
    170e:	c1 93       	st	Z+, r28
    1710:	10 82       	st	Z, r1
    1712:	8f 91       	pop	r24
    1714:	9f 91       	pop	r25
    1716:	cf 91       	pop	r28
    1718:	0c 94 18 0c 	jmp	0x1830	; 0x1830 <strrev>

0000171c <fputc>:
    171c:	0f 93       	push	r16
    171e:	1f 93       	push	r17
    1720:	cf 93       	push	r28
    1722:	df 93       	push	r29
    1724:	8c 01       	movw	r16, r24
    1726:	eb 01       	movw	r28, r22
    1728:	8b 81       	ldd	r24, Y+3	; 0x03
    172a:	81 ff       	sbrs	r24, 1
    172c:	1b c0       	rjmp	.+54     	; 0x1764 <fputc+0x48>
    172e:	82 ff       	sbrs	r24, 2
    1730:	0d c0       	rjmp	.+26     	; 0x174c <fputc+0x30>
    1732:	2e 81       	ldd	r18, Y+6	; 0x06
    1734:	3f 81       	ldd	r19, Y+7	; 0x07
    1736:	8c 81       	ldd	r24, Y+4	; 0x04
    1738:	9d 81       	ldd	r25, Y+5	; 0x05
    173a:	28 17       	cp	r18, r24
    173c:	39 07       	cpc	r19, r25
    173e:	64 f4       	brge	.+24     	; 0x1758 <fputc+0x3c>
    1740:	e8 81       	ld	r30, Y
    1742:	f9 81       	ldd	r31, Y+1	; 0x01
    1744:	01 93       	st	Z+, r16
    1746:	f9 83       	std	Y+1, r31	; 0x01
    1748:	e8 83       	st	Y, r30
    174a:	06 c0       	rjmp	.+12     	; 0x1758 <fputc+0x3c>
    174c:	e8 85       	ldd	r30, Y+8	; 0x08
    174e:	f9 85       	ldd	r31, Y+9	; 0x09
    1750:	80 2f       	mov	r24, r16
    1752:	09 95       	icall
    1754:	00 97       	sbiw	r24, 0x00	; 0
    1756:	31 f4       	brne	.+12     	; 0x1764 <fputc+0x48>
    1758:	8e 81       	ldd	r24, Y+6	; 0x06
    175a:	9f 81       	ldd	r25, Y+7	; 0x07
    175c:	01 96       	adiw	r24, 0x01	; 1
    175e:	9f 83       	std	Y+7, r25	; 0x07
    1760:	8e 83       	std	Y+6, r24	; 0x06
    1762:	02 c0       	rjmp	.+4      	; 0x1768 <fputc+0x4c>
    1764:	0f ef       	ldi	r16, 0xFF	; 255
    1766:	1f ef       	ldi	r17, 0xFF	; 255
    1768:	c8 01       	movw	r24, r16
    176a:	df 91       	pop	r29
    176c:	cf 91       	pop	r28
    176e:	1f 91       	pop	r17
    1770:	0f 91       	pop	r16
    1772:	08 95       	ret

00001774 <__ultoa_invert>:
    1774:	fa 01       	movw	r30, r20
    1776:	aa 27       	eor	r26, r26
    1778:	28 30       	cpi	r18, 0x08	; 8
    177a:	51 f1       	breq	.+84     	; 0x17d0 <__ultoa_invert+0x5c>
    177c:	20 31       	cpi	r18, 0x10	; 16
    177e:	81 f1       	breq	.+96     	; 0x17e0 <__ultoa_invert+0x6c>
    1780:	e8 94       	clt
    1782:	6f 93       	push	r22
    1784:	6e 7f       	andi	r22, 0xFE	; 254
    1786:	6e 5f       	subi	r22, 0xFE	; 254
    1788:	7f 4f       	sbci	r23, 0xFF	; 255
    178a:	8f 4f       	sbci	r24, 0xFF	; 255
    178c:	9f 4f       	sbci	r25, 0xFF	; 255
    178e:	af 4f       	sbci	r26, 0xFF	; 255
    1790:	b1 e0       	ldi	r27, 0x01	; 1
    1792:	3e d0       	rcall	.+124    	; 0x1810 <__ultoa_invert+0x9c>
    1794:	b4 e0       	ldi	r27, 0x04	; 4
    1796:	3c d0       	rcall	.+120    	; 0x1810 <__ultoa_invert+0x9c>
    1798:	67 0f       	add	r22, r23
    179a:	78 1f       	adc	r23, r24
    179c:	89 1f       	adc	r24, r25
    179e:	9a 1f       	adc	r25, r26
    17a0:	a1 1d       	adc	r26, r1
    17a2:	68 0f       	add	r22, r24
    17a4:	79 1f       	adc	r23, r25
    17a6:	8a 1f       	adc	r24, r26
    17a8:	91 1d       	adc	r25, r1
    17aa:	a1 1d       	adc	r26, r1
    17ac:	6a 0f       	add	r22, r26
    17ae:	71 1d       	adc	r23, r1
    17b0:	81 1d       	adc	r24, r1
    17b2:	91 1d       	adc	r25, r1
    17b4:	a1 1d       	adc	r26, r1
    17b6:	20 d0       	rcall	.+64     	; 0x17f8 <__ultoa_invert+0x84>
    17b8:	09 f4       	brne	.+2      	; 0x17bc <__ultoa_invert+0x48>
    17ba:	68 94       	set
    17bc:	3f 91       	pop	r19
    17be:	2a e0       	ldi	r18, 0x0A	; 10
    17c0:	26 9f       	mul	r18, r22
    17c2:	11 24       	eor	r1, r1
    17c4:	30 19       	sub	r19, r0
    17c6:	30 5d       	subi	r19, 0xD0	; 208
    17c8:	31 93       	st	Z+, r19
    17ca:	de f6       	brtc	.-74     	; 0x1782 <__ultoa_invert+0xe>
    17cc:	cf 01       	movw	r24, r30
    17ce:	08 95       	ret
    17d0:	46 2f       	mov	r20, r22
    17d2:	47 70       	andi	r20, 0x07	; 7
    17d4:	40 5d       	subi	r20, 0xD0	; 208
    17d6:	41 93       	st	Z+, r20
    17d8:	b3 e0       	ldi	r27, 0x03	; 3
    17da:	0f d0       	rcall	.+30     	; 0x17fa <__ultoa_invert+0x86>
    17dc:	c9 f7       	brne	.-14     	; 0x17d0 <__ultoa_invert+0x5c>
    17de:	f6 cf       	rjmp	.-20     	; 0x17cc <__ultoa_invert+0x58>
    17e0:	46 2f       	mov	r20, r22
    17e2:	4f 70       	andi	r20, 0x0F	; 15
    17e4:	40 5d       	subi	r20, 0xD0	; 208
    17e6:	4a 33       	cpi	r20, 0x3A	; 58
    17e8:	18 f0       	brcs	.+6      	; 0x17f0 <__ultoa_invert+0x7c>
    17ea:	49 5d       	subi	r20, 0xD9	; 217
    17ec:	31 fd       	sbrc	r19, 1
    17ee:	40 52       	subi	r20, 0x20	; 32
    17f0:	41 93       	st	Z+, r20
    17f2:	02 d0       	rcall	.+4      	; 0x17f8 <__ultoa_invert+0x84>
    17f4:	a9 f7       	brne	.-22     	; 0x17e0 <__ultoa_invert+0x6c>
    17f6:	ea cf       	rjmp	.-44     	; 0x17cc <__ultoa_invert+0x58>
    17f8:	b4 e0       	ldi	r27, 0x04	; 4
    17fa:	a6 95       	lsr	r26
    17fc:	97 95       	ror	r25
    17fe:	87 95       	ror	r24
    1800:	77 95       	ror	r23
    1802:	67 95       	ror	r22
    1804:	ba 95       	dec	r27
    1806:	c9 f7       	brne	.-14     	; 0x17fa <__ultoa_invert+0x86>
    1808:	00 97       	sbiw	r24, 0x00	; 0
    180a:	61 05       	cpc	r22, r1
    180c:	71 05       	cpc	r23, r1
    180e:	08 95       	ret
    1810:	9b 01       	movw	r18, r22
    1812:	ac 01       	movw	r20, r24
    1814:	0a 2e       	mov	r0, r26
    1816:	06 94       	lsr	r0
    1818:	57 95       	ror	r21
    181a:	47 95       	ror	r20
    181c:	37 95       	ror	r19
    181e:	27 95       	ror	r18
    1820:	ba 95       	dec	r27
    1822:	c9 f7       	brne	.-14     	; 0x1816 <__ultoa_invert+0xa2>
    1824:	62 0f       	add	r22, r18
    1826:	73 1f       	adc	r23, r19
    1828:	84 1f       	adc	r24, r20
    182a:	95 1f       	adc	r25, r21
    182c:	a0 1d       	adc	r26, r0
    182e:	08 95       	ret

00001830 <strrev>:
    1830:	dc 01       	movw	r26, r24
    1832:	fc 01       	movw	r30, r24
    1834:	67 2f       	mov	r22, r23
    1836:	71 91       	ld	r23, Z+
    1838:	77 23       	and	r23, r23
    183a:	e1 f7       	brne	.-8      	; 0x1834 <strrev+0x4>
    183c:	32 97       	sbiw	r30, 0x02	; 2
    183e:	04 c0       	rjmp	.+8      	; 0x1848 <strrev+0x18>
    1840:	7c 91       	ld	r23, X
    1842:	6d 93       	st	X+, r22
    1844:	70 83       	st	Z, r23
    1846:	62 91       	ld	r22, -Z
    1848:	ae 17       	cp	r26, r30
    184a:	bf 07       	cpc	r27, r31
    184c:	c8 f3       	brcs	.-14     	; 0x1840 <strrev+0x10>
    184e:	08 95       	ret

00001850 <__udivmodsi4>:
    1850:	a1 e2       	ldi	r26, 0x21	; 33
    1852:	1a 2e       	mov	r1, r26
    1854:	aa 1b       	sub	r26, r26
    1856:	bb 1b       	sub	r27, r27
    1858:	fd 01       	movw	r30, r26
    185a:	0d c0       	rjmp	.+26     	; 0x1876 <__udivmodsi4_ep>

0000185c <__udivmodsi4_loop>:
    185c:	aa 1f       	adc	r26, r26
    185e:	bb 1f       	adc	r27, r27
    1860:	ee 1f       	adc	r30, r30
    1862:	ff 1f       	adc	r31, r31
    1864:	a2 17       	cp	r26, r18
    1866:	b3 07       	cpc	r27, r19
    1868:	e4 07       	cpc	r30, r20
    186a:	f5 07       	cpc	r31, r21
    186c:	20 f0       	brcs	.+8      	; 0x1876 <__udivmodsi4_ep>
    186e:	a2 1b       	sub	r26, r18
    1870:	b3 0b       	sbc	r27, r19
    1872:	e4 0b       	sbc	r30, r20
    1874:	f5 0b       	sbc	r31, r21

00001876 <__udivmodsi4_ep>:
    1876:	66 1f       	adc	r22, r22
    1878:	77 1f       	adc	r23, r23
    187a:	88 1f       	adc	r24, r24
    187c:	99 1f       	adc	r25, r25
    187e:	1a 94       	dec	r1
    1880:	69 f7       	brne	.-38     	; 0x185c <__udivmodsi4_loop>
    1882:	60 95       	com	r22
    1884:	70 95       	com	r23
    1886:	80 95       	com	r24
    1888:	90 95       	com	r25
    188a:	9b 01       	movw	r18, r22
    188c:	ac 01       	movw	r20, r24
    188e:	bd 01       	movw	r22, r26
    1890:	cf 01       	movw	r24, r30
    1892:	08 95       	ret

00001894 <_exit>:
    1894:	f8 94       	cli

00001896 <__stop_program>:
    1896:	ff cf       	rjmp	.-2      	; 0x1896 <__stop_program>
